; ModuleID = '/data/download/cmake/cmake-master/Utilities/cmjsoncpp/src/lib_json/json_reader.cpp'
target datalayout = "e-m:e-i64:64-f80:128-n8:16:32:64-S128"
target triple = "x86_64-unknown-linux-gnu"

%struct._IO_FILE = type { i32, i8*, i8*, i8*, i8*, i8*, i8*, i8*, i8*, i8*, i8*, i8*, %struct._IO_marker*, %struct._IO_FILE*, i32, i32, i64, i16, i8, [1 x i8], i8*, i64, i8*, i8*, i8*, i8*, i64, i32, [20 x i8] }
%struct._IO_marker = type { %struct._IO_marker*, %struct._IO_FILE*, i32 }
%"class.Json::Features" = type { i8, i8, i8, i8 }
%"class.Json::Reader" = type <{ %"class.std::stack", %"class.std::deque.3", %"class.std::basic_string", i8*, i8*, i8*, i8*, %"class.Json::Value"*, %"class.std::basic_string", %"class.Json::Features", i8, [3 x i8] }>
%"class.std::stack" = type { %"class.std::deque" }
%"class.std::deque" = type { %"class.std::_Deque_base" }
%"class.std::_Deque_base" = type { %"struct.std::_Deque_base<Json::Value *, std::allocator<Json::Value *> >::_Deque_impl" }
%"struct.std::_Deque_base<Json::Value *, std::allocator<Json::Value *> >::_Deque_impl" = type { %"class.Json::Value"***, i64, %"struct.std::_Deque_iterator", %"struct.std::_Deque_iterator" }
%"struct.std::_Deque_iterator" = type { %"class.Json::Value"**, %"class.Json::Value"**, %"class.Json::Value"**, %"class.Json::Value"*** }
%"class.std::deque.3" = type { %"class.std::_Deque_base.4" }
%"class.std::_Deque_base.4" = type { %"struct.std::_Deque_base<Json::Reader::ErrorInfo, std::allocator<Json::Reader::ErrorInfo> >::_Deque_impl" }
%"struct.std::_Deque_base<Json::Reader::ErrorInfo, std::allocator<Json::Reader::ErrorInfo> >::_Deque_impl" = type { %"class.Json::Reader::ErrorInfo"**, i64, %"struct.std::_Deque_iterator.11", %"struct.std::_Deque_iterator.11" }
%"class.Json::Reader::ErrorInfo" = type { %"class.Json::Reader::Token", %"class.std::basic_string", i8* }
%"class.Json::Reader::Token" = type { i32, i8*, i8* }
%"struct.std::_Deque_iterator.11" = type { %"class.Json::Reader::ErrorInfo"*, %"class.Json::Reader::ErrorInfo"*, %"class.Json::Reader::ErrorInfo"*, %"class.Json::Reader::ErrorInfo"** }
%"class.Json::Value" = type { %"union.Json::Value::ValueHolder", i16, %"struct.Json::Value::CommentInfo"*, i64, i64 }
%"union.Json::Value::ValueHolder" = type { i64 }
%"struct.Json::Value::CommentInfo" = type { i8* }
%"class.std::basic_string" = type { %"struct.std::basic_string<char, std::char_traits<char>, std::allocator<char> >::_Alloc_hider" }
%"struct.std::basic_string<char, std::char_traits<char>, std::allocator<char> >::_Alloc_hider" = type { i8* }
%"class.std::allocator" = type { i8 }
%"class.std::allocator.5" = type { i8 }
%"class.std::allocator.8" = type { i8 }
%"class.std::basic_istream" = type { i32 (...)**, i64, %"class.std::basic_ios" }
%"class.std::basic_ios" = type { %"class.std::ios_base", %"class.std::basic_ostream"*, i8, i8, %"class.std::basic_streambuf"*, %"class.std::ctype"*, %"class.std::num_put"*, %"class.std::num_get"* }
%"class.std::ios_base" = type { i32 (...)**, i64, i64, i32, i32, i32, %"struct.std::ios_base::_Callback_list"*, %"struct.std::ios_base::_Words", [8 x %"struct.std::ios_base::_Words"], i32, %"struct.std::ios_base::_Words"*, %"class.std::locale" }
%"struct.std::ios_base::_Callback_list" = type { %"struct.std::ios_base::_Callback_list"*, void (i32, %"class.std::ios_base"*, i32)*, i32, i32 }
%"struct.std::ios_base::_Words" = type { i8*, i64 }
%"class.std::locale" = type { %"class.std::locale::_Impl"* }
%"class.std::locale::_Impl" = type { i32, %"class.std::locale::facet"**, i64, %"class.std::locale::facet"**, i8** }
%"class.std::locale::facet" = type <{ i32 (...)**, i32, [4 x i8] }>
%"class.std::basic_ostream" = type { i32 (...)**, %"class.std::basic_ios" }
%"class.std::basic_streambuf" = type { i32 (...)**, i8*, i8*, i8*, i8*, i8*, i8*, %"class.std::locale" }
%"class.std::ctype" = type <{ %"class.std::locale::facet.base", [4 x i8], %struct.__locale_struct*, i8, [7 x i8], i32*, i32*, i16*, i8, [256 x i8], [256 x i8], i8, [6 x i8] }>
%"class.std::locale::facet.base" = type <{ i32 (...)**, i32 }>
%struct.__locale_struct = type { [13 x %struct.__locale_data*], i16*, i32*, i32*, [13 x i8*] }
%struct.__locale_data = type opaque
%"class.std::num_put" = type { %"class.std::locale::facet.base", [4 x i8] }
%"class.std::num_get" = type { %"class.std::locale::facet.base", [4 x i8] }
%"class.__gnu_cxx::new_allocator.6" = type { i8 }
%"struct.std::_Deque_iterator.12" = type { %"class.Json::Reader::ErrorInfo"*, %"class.Json::Reader::ErrorInfo"*, %"class.Json::Reader::ErrorInfo"*, %"class.Json::Reader::ErrorInfo"** }
%"class.std::vector" = type { %"struct.std::_Vector_base" }
%"struct.std::_Vector_base" = type { %"struct.std::_Vector_base<Json::Reader::StructuredError, std::allocator<Json::Reader::StructuredError> >::_Vector_impl" }
%"struct.std::_Vector_base<Json::Reader::StructuredError, std::allocator<Json::Reader::StructuredError> >::_Vector_impl" = type { %"struct.Json::Reader::StructuredError"*, %"struct.Json::Reader::StructuredError"*, %"struct.Json::Reader::StructuredError"* }
%"struct.Json::Reader::StructuredError" = type { i64, i64, %"class.std::basic_string" }
%"class.__gnu_cxx::__normal_iterator" = type { %"struct.Json::Reader::StructuredError"* }
%"class.std::allocator.13" = type { i8 }
%"class.std::runtime_error" = type { %"class.std::exception", %"class.std::basic_string" }
%"class.std::exception" = type { i32 (...)** }
%"class.std::allocator.16" = type { i8 }
%"class.__gnu_cxx::new_allocator.17" = type { i8 }
%"class.__gnu_cxx::new_allocator" = type { i8 }
%"class.std::allocator.19" = type { i8 }
%"class.__gnu_cxx::new_allocator.20" = type { i8 }
%"struct.std::_Deque_iterator.22" = type { %"class.Json::Value"**, %"class.Json::Value"**, %"class.Json::Value"**, %"class.Json::Value"*** }
%"struct.std::__false_type" = type { i8 }
%"struct.std::forward_iterator_tag" = type { i8 }
%"struct.std::random_access_iterator_tag" = type { i8 }
%"struct.std::basic_string<char, std::char_traits<char>, std::allocator<char> >::_Rep" = type { %"struct.std::basic_string<char, std::char_traits<char>, std::allocator<char> >::_Rep_base" }
%"struct.std::basic_string<char, std::char_traits<char>, std::allocator<char> >::_Rep_base" = type { i64, i64, i32 }
%"class.__gnu_cxx::new_allocator.14" = type { i8 }

$_ZNSt5dequeIPN4Json5ValueESaIS2_EEC2Ev = comdat any

$_ZNSt5stackIPN4Json5ValueESt5dequeIS2_SaIS2_EEEC2ERKS5_ = comdat any

$_ZNSt5dequeIPN4Json5ValueESaIS2_EED2Ev = comdat any

$__clang_call_terminate = comdat any

$_ZNSt5dequeIN4Json6Reader9ErrorInfoESaIS2_EEC2Ev = comdat any

$_ZNSt5dequeIN4Json6Reader9ErrorInfoESaIS2_EED2Ev = comdat any

$_ZNSt5stackIPN4Json5ValueESt5dequeIS2_SaIS2_EEED2Ev = comdat any

$_ZNSt5dequeIN4Json6Reader9ErrorInfoESaIS2_EE5clearEv = comdat any

$_ZNKSt5stackIPN4Json5ValueESt5dequeIS2_SaIS2_EEE5emptyEv = comdat any

$_ZNSt5stackIPN4Json5ValueESt5dequeIS2_SaIS2_EEE3popEv = comdat any

$_ZNSt5stackIPN4Json5ValueESt5dequeIS2_SaIS2_EEE4pushERKS2_ = comdat any

$_ZNSsC2IPKcEET_S2_RKSaIcE = comdat any

$_ZStplIcSt11char_traitsIcESaIcEESbIT_T0_T1_ERKS6_PKS3_ = comdat any

$_ZStplIcSt11char_traitsIcESaIcEESbIT_T0_T1_EPKS3_RKS6_ = comdat any

$_ZN4Json6Reader9ErrorInfoC2Ev = comdat any

$_ZNSt5dequeIN4Json6Reader9ErrorInfoESaIS2_EE9push_backERKS2_ = comdat any

$_ZN4Json6Reader9ErrorInfoD2Ev = comdat any

$_ZNKSt5dequeIN4Json6Reader9ErrorInfoESaIS2_EE4sizeEv = comdat any

$_ZNSt5dequeIN4Json6Reader9ErrorInfoESaIS2_EE6resizeEmS2_ = comdat any

$_ZNSt5stackIPN4Json5ValueESt5dequeIS2_SaIS2_EEE3topEv = comdat any

$_ZNKSt5dequeIN4Json6Reader9ErrorInfoESaIS2_EE5beginEv = comdat any

$_ZStneIN4Json6Reader9ErrorInfoERKS2_PS3_EbRKSt15_Deque_iteratorIT_T0_T1_ESC_ = comdat any

$_ZNKSt5dequeIN4Json6Reader9ErrorInfoESaIS2_EE3endEv = comdat any

$_ZNKSt15_Deque_iteratorIN4Json6Reader9ErrorInfoERKS2_PS3_EdeEv = comdat any

$_ZNSt15_Deque_iteratorIN4Json6Reader9ErrorInfoERKS2_PS3_EppEv = comdat any

$_ZNSt6vectorIN4Json6Reader15StructuredErrorESaIS2_EEC2Ev = comdat any

$_ZN4Json6Reader15StructuredErrorC2Ev = comdat any

$_ZNSt6vectorIN4Json6Reader15StructuredErrorESaIS2_EE9push_backERKS2_ = comdat any

$_ZN4Json6Reader15StructuredErrorD2Ev = comdat any

$_ZNSt6vectorIN4Json6Reader15StructuredErrorESaIS2_EED2Ev = comdat any

$_ZN4Json6ReaderD2Ev = comdat any

$_ZNSt11_Deque_baseIN4Json6Reader9ErrorInfoESaIS2_EEC2Ev = comdat any

$_ZNSt11_Deque_baseIN4Json6Reader9ErrorInfoESaIS2_EE11_Deque_implC2Ev = comdat any

$_ZNSt11_Deque_baseIN4Json6Reader9ErrorInfoESaIS2_EE17_M_initialize_mapEm = comdat any

$_ZNSt11_Deque_baseIN4Json6Reader9ErrorInfoESaIS2_EE11_Deque_implD2Ev = comdat any

$_ZNSaIN4Json6Reader9ErrorInfoEEC2Ev = comdat any

$_ZNSt15_Deque_iteratorIN4Json6Reader9ErrorInfoERS2_PS2_EC2Ev = comdat any

$_ZNSaIN4Json6Reader9ErrorInfoEED2Ev = comdat any

$_ZN9__gnu_cxx13new_allocatorIN4Json6Reader9ErrorInfoEEC2Ev = comdat any

$_ZN9__gnu_cxx13new_allocatorIN4Json6Reader9ErrorInfoEED2Ev = comdat any

$_ZSt16__deque_buf_sizem = comdat any

$_ZSt3maxImERKT_S2_S2_ = comdat any

$_ZNSt11_Deque_baseIN4Json6Reader9ErrorInfoESaIS2_EE15_M_allocate_mapEm = comdat any

$_ZNSt11_Deque_baseIN4Json6Reader9ErrorInfoESaIS2_EE15_M_create_nodesEPPS2_S6_ = comdat any

$_ZNSt11_Deque_baseIN4Json6Reader9ErrorInfoESaIS2_EE17_M_deallocate_mapEPPS2_m = comdat any

$_ZNSt15_Deque_iteratorIN4Json6Reader9ErrorInfoERS2_PS2_E11_M_set_nodeEPS4_ = comdat any

$_ZNKSt11_Deque_baseIN4Json6Reader9ErrorInfoESaIS2_EE20_M_get_map_allocatorEv = comdat any

$_ZN9__gnu_cxx13new_allocatorIPN4Json6Reader9ErrorInfoEE8allocateEmPKv = comdat any

$_ZNSaIPN4Json6Reader9ErrorInfoEED2Ev = comdat any

$_ZNKSt11_Deque_baseIN4Json6Reader9ErrorInfoESaIS2_EE19_M_get_Tp_allocatorEv = comdat any

$_ZNSaIPN4Json6Reader9ErrorInfoEEC2IS1_EERKSaIT_E = comdat any

$_ZN9__gnu_cxx13new_allocatorIPN4Json6Reader9ErrorInfoEEC2Ev = comdat any

$_ZNK9__gnu_cxx13new_allocatorIPN4Json6Reader9ErrorInfoEE8max_sizeEv = comdat any

$_ZN9__gnu_cxx13new_allocatorIPN4Json6Reader9ErrorInfoEED2Ev = comdat any

$_ZNSt11_Deque_baseIN4Json6Reader9ErrorInfoESaIS2_EE16_M_allocate_nodeEv = comdat any

$_ZNSt11_Deque_baseIN4Json6Reader9ErrorInfoESaIS2_EE16_M_destroy_nodesEPPS2_S6_ = comdat any

$_ZN9__gnu_cxx13new_allocatorIN4Json6Reader9ErrorInfoEE8allocateEmPKv = comdat any

$_ZNK9__gnu_cxx13new_allocatorIN4Json6Reader9ErrorInfoEE8max_sizeEv = comdat any

$_ZNSt11_Deque_baseIN4Json6Reader9ErrorInfoESaIS2_EE18_M_deallocate_nodeEPS2_ = comdat any

$_ZN9__gnu_cxx13new_allocatorIN4Json6Reader9ErrorInfoEE10deallocateEPS3_m = comdat any

$_ZN9__gnu_cxx13new_allocatorIPN4Json6Reader9ErrorInfoEE10deallocateEPS4_m = comdat any

$_ZNSt15_Deque_iteratorIN4Json6Reader9ErrorInfoERS2_PS2_E14_S_buffer_sizeEv = comdat any

$_ZNSt11_Deque_baseIPN4Json5ValueESaIS2_EEC2Ev = comdat any

$_ZNSt11_Deque_baseIPN4Json5ValueESaIS2_EE11_Deque_implC2Ev = comdat any

$_ZNSt11_Deque_baseIPN4Json5ValueESaIS2_EE17_M_initialize_mapEm = comdat any

$_ZNSt11_Deque_baseIPN4Json5ValueESaIS2_EE11_Deque_implD2Ev = comdat any

$_ZNSaIPN4Json5ValueEEC2Ev = comdat any

$_ZNSt15_Deque_iteratorIPN4Json5ValueERS2_PS2_EC2Ev = comdat any

$_ZNSaIPN4Json5ValueEED2Ev = comdat any

$_ZN9__gnu_cxx13new_allocatorIPN4Json5ValueEEC2Ev = comdat any

$_ZN9__gnu_cxx13new_allocatorIPN4Json5ValueEED2Ev = comdat any

$_ZNSt11_Deque_baseIPN4Json5ValueESaIS2_EE15_M_allocate_mapEm = comdat any

$_ZNSt11_Deque_baseIPN4Json5ValueESaIS2_EE15_M_create_nodesEPPS2_S6_ = comdat any

$_ZNSt11_Deque_baseIPN4Json5ValueESaIS2_EE17_M_deallocate_mapEPPS2_m = comdat any

$_ZNSt15_Deque_iteratorIPN4Json5ValueERS2_PS2_E11_M_set_nodeEPS4_ = comdat any

$_ZNKSt11_Deque_baseIPN4Json5ValueESaIS2_EE20_M_get_map_allocatorEv = comdat any

$_ZN9__gnu_cxx13new_allocatorIPPN4Json5ValueEE8allocateEmPKv = comdat any

$_ZNSaIPPN4Json5ValueEED2Ev = comdat any

$_ZNKSt11_Deque_baseIPN4Json5ValueESaIS2_EE19_M_get_Tp_allocatorEv = comdat any

$_ZNSaIPPN4Json5ValueEEC2IS1_EERKSaIT_E = comdat any

$_ZN9__gnu_cxx13new_allocatorIPPN4Json5ValueEEC2Ev = comdat any

$_ZNK9__gnu_cxx13new_allocatorIPPN4Json5ValueEE8max_sizeEv = comdat any

$_ZN9__gnu_cxx13new_allocatorIPPN4Json5ValueEED2Ev = comdat any

$_ZNSt11_Deque_baseIPN4Json5ValueESaIS2_EE16_M_allocate_nodeEv = comdat any

$_ZNSt11_Deque_baseIPN4Json5ValueESaIS2_EE16_M_destroy_nodesEPPS2_S6_ = comdat any

$_ZN9__gnu_cxx13new_allocatorIPN4Json5ValueEE8allocateEmPKv = comdat any

$_ZNK9__gnu_cxx13new_allocatorIPN4Json5ValueEE8max_sizeEv = comdat any

$_ZNSt11_Deque_baseIPN4Json5ValueESaIS2_EE18_M_deallocate_nodeEPS2_ = comdat any

$_ZN9__gnu_cxx13new_allocatorIPN4Json5ValueEE10deallocateEPS3_m = comdat any

$_ZN9__gnu_cxx13new_allocatorIPPN4Json5ValueEE10deallocateEPS4_m = comdat any

$_ZNSt15_Deque_iteratorIPN4Json5ValueERS2_PS2_E14_S_buffer_sizeEv = comdat any

$_ZNSt5dequeIPN4Json5ValueESaIS2_EE15_M_destroy_dataESt15_Deque_iteratorIS2_RS2_PS2_ES8_RKS3_ = comdat any

$_ZNSt5dequeIPN4Json5ValueESaIS2_EE5beginEv = comdat any

$_ZNSt5dequeIPN4Json5ValueESaIS2_EE3endEv = comdat any

$_ZNSt11_Deque_baseIPN4Json5ValueESaIS2_EE19_M_get_Tp_allocatorEv = comdat any

$_ZNSt11_Deque_baseIPN4Json5ValueESaIS2_EED2Ev = comdat any

$_ZNSt15_Deque_iteratorIPN4Json5ValueERS2_PS2_EC2ERKS5_ = comdat any

$_ZNSt5dequeIPN4Json5ValueESaIS2_EEC2ERKS4_ = comdat any

$_ZNKSt5dequeIPN4Json5ValueESaIS2_EE4sizeEv = comdat any

$_ZNSt11_Deque_baseIPN4Json5ValueESaIS2_EEC2ERKS3_m = comdat any

$_ZSt22__uninitialized_copy_aISt15_Deque_iteratorIPN4Json5ValueERKS3_PS4_ES0_IS3_RS3_PS3_ES3_ET0_T_SC_SB_RSaIT1_E = comdat any

$_ZNKSt5dequeIPN4Json5ValueESaIS2_EE5beginEv = comdat any

$_ZNKSt5dequeIPN4Json5ValueESaIS2_EE3endEv = comdat any

$_ZStmiIPN4Json5ValueERS2_PS2_ENSt15_Deque_iteratorIT_T0_T1_E15difference_typeERKS9_SC_ = comdat any

$_ZNSt11_Deque_baseIPN4Json5ValueESaIS2_EE11_Deque_implC2ERKS3_ = comdat any

$_ZNSaIPN4Json5ValueEEC2ERKS2_ = comdat any

$_ZN9__gnu_cxx13new_allocatorIPN4Json5ValueEEC2ERKS4_ = comdat any

$_ZSt18uninitialized_copyISt15_Deque_iteratorIPN4Json5ValueERKS3_PS4_ES0_IS3_RS3_PS3_EET0_T_SC_SB_ = comdat any

$_ZNSt20__uninitialized_copyILb1EE13__uninit_copyISt15_Deque_iteratorIPN4Json5ValueERKS5_PS6_ES2_IS5_RS5_PS5_EEET0_T_SE_SD_ = comdat any

$_ZSt4copyISt15_Deque_iteratorIPN4Json5ValueERKS3_PS4_ES0_IS3_RS3_PS3_EET0_T_SC_SB_ = comdat any

$_ZSt14__copy_move_a2ILb0ESt15_Deque_iteratorIPN4Json5ValueERKS3_PS4_ES0_IS3_RS3_PS3_EET1_T0_SC_SB_ = comdat any

$_ZSt12__miter_baseISt15_Deque_iteratorIPN4Json5ValueERKS3_PS4_EENSt11_Miter_baseIT_E13iterator_typeES9_ = comdat any

$_ZSt13__copy_move_aILb0ESt15_Deque_iteratorIPN4Json5ValueERKS3_PS4_ES0_IS3_RS3_PS3_EET1_T0_SC_SB_ = comdat any

$_ZSt12__niter_baseISt15_Deque_iteratorIPN4Json5ValueERKS3_PS4_EENSt11_Niter_baseIT_E13iterator_typeES9_ = comdat any

$_ZSt12__niter_baseISt15_Deque_iteratorIPN4Json5ValueERS3_PS3_EENSt11_Niter_baseIT_E13iterator_typeES8_ = comdat any

$_ZNSt11__copy_moveILb0ELb0ESt26random_access_iterator_tagE8__copy_mISt15_Deque_iteratorIPN4Json5ValueERKS6_PS7_ES3_IS6_RS6_PS6_EEET0_T_SF_SE_ = comdat any

$_ZStmiIPN4Json5ValueERKS2_PS3_ENSt15_Deque_iteratorIT_T0_T1_E15difference_typeERKSA_SD_ = comdat any

$_ZNKSt15_Deque_iteratorIPN4Json5ValueERKS2_PS3_EdeEv = comdat any

$_ZNKSt15_Deque_iteratorIPN4Json5ValueERS2_PS2_EdeEv = comdat any

$_ZNSt15_Deque_iteratorIPN4Json5ValueERKS2_PS3_EppEv = comdat any

$_ZNSt15_Deque_iteratorIPN4Json5ValueERS2_PS2_EppEv = comdat any

$_ZNSt15_Deque_iteratorIPN4Json5ValueERKS2_PS3_E14_S_buffer_sizeEv = comdat any

$_ZNSt15_Deque_iteratorIPN4Json5ValueERKS2_PS3_E11_M_set_nodeEPPS2_ = comdat any

$_ZNSt10_Iter_baseISt15_Deque_iteratorIPN4Json5ValueERKS3_PS4_ELb0EE7_S_baseES7_ = comdat any

$_ZNSt10_Iter_baseISt15_Deque_iteratorIPN4Json5ValueERS3_PS3_ELb0EE7_S_baseES6_ = comdat any

$_ZNSt15_Deque_iteratorIPN4Json5ValueERKS2_PS3_EC2ERKS_IS2_RS2_PS2_E = comdat any

$_ZNSt5dequeIN4Json6Reader9ErrorInfoESaIS2_EE15_M_destroy_dataESt15_Deque_iteratorIS2_RS2_PS2_ES8_RKS3_ = comdat any

$_ZNSt5dequeIN4Json6Reader9ErrorInfoESaIS2_EE5beginEv = comdat any

$_ZNSt5dequeIN4Json6Reader9ErrorInfoESaIS2_EE3endEv = comdat any

$_ZNSt11_Deque_baseIN4Json6Reader9ErrorInfoESaIS2_EE19_M_get_Tp_allocatorEv = comdat any

$_ZNSt11_Deque_baseIN4Json6Reader9ErrorInfoESaIS2_EED2Ev = comdat any

$_ZNSt5dequeIN4Json6Reader9ErrorInfoESaIS2_EE19_M_destroy_data_auxESt15_Deque_iteratorIS2_RS2_PS2_ES8_ = comdat any

$_ZNSt15_Deque_iteratorIN4Json6Reader9ErrorInfoERS2_PS2_EC2ERKS5_ = comdat any

$_ZSt8_DestroyIPN4Json6Reader9ErrorInfoES2_EvT_S4_RSaIT0_E = comdat any

$_ZNSt5dequeIN4Json6Reader9ErrorInfoESaIS2_EE14_S_buffer_sizeEv = comdat any

$_ZSt8_DestroyIPN4Json6Reader9ErrorInfoEEvT_S4_ = comdat any

$_ZNSt12_Destroy_auxILb0EE9__destroyIPN4Json6Reader9ErrorInfoEEEvT_S6_ = comdat any

$_ZSt8_DestroyIN4Json6Reader9ErrorInfoEEvPT_ = comdat any

$_ZSt11__addressofIN4Json6Reader9ErrorInfoEEPT_RS3_ = comdat any

$_ZNSt5dequeIN4Json6Reader9ErrorInfoESaIS2_EE15_M_erase_at_endESt15_Deque_iteratorIS2_RS2_PS2_E = comdat any

$_ZNKSt5dequeIPN4Json5ValueESaIS2_EE5emptyEv = comdat any

$_ZSteqIPN4Json5ValueERS2_PS2_EbRKSt15_Deque_iteratorIT_T0_T1_ESB_ = comdat any

$_ZNSt5dequeIPN4Json5ValueESaIS2_EE8pop_backEv = comdat any

$_ZN9__gnu_cxx13new_allocatorIPN4Json5ValueEE7destroyEPS3_ = comdat any

$_ZNSt5dequeIPN4Json5ValueESaIS2_EE15_M_pop_back_auxEv = comdat any

$_ZNSt5dequeIPN4Json5ValueESaIS2_EE9push_backERKS2_ = comdat any

$_ZN9__gnu_cxx13new_allocatorIPN4Json5ValueEE9constructEPS3_RKS3_ = comdat any

$_ZNSt5dequeIPN4Json5ValueESaIS2_EE16_M_push_back_auxERKS2_ = comdat any

$_ZNSt5dequeIPN4Json5ValueESaIS2_EE22_M_reserve_map_at_backEm = comdat any

$_ZNSt5dequeIPN4Json5ValueESaIS2_EE17_M_reallocate_mapEmb = comdat any

$_ZSt4copyIPPPN4Json5ValueES4_ET0_T_S6_S5_ = comdat any

$_ZSt13copy_backwardIPPPN4Json5ValueES4_ET0_T_S6_S5_ = comdat any

$_ZSt14__copy_move_a2ILb0EPPPN4Json5ValueES4_ET1_T0_S6_S5_ = comdat any

$_ZSt12__miter_baseIPPPN4Json5ValueEENSt11_Miter_baseIT_E13iterator_typeES6_ = comdat any

$_ZSt13__copy_move_aILb0EPPPN4Json5ValueES4_ET1_T0_S6_S5_ = comdat any

$_ZSt12__niter_baseIPPPN4Json5ValueEENSt11_Niter_baseIT_E13iterator_typeES6_ = comdat any

$_ZNSt11__copy_moveILb0ELb1ESt26random_access_iterator_tagE8__copy_mIPPN4Json5ValueEEEPT_PKS7_SA_S8_ = comdat any

$_ZNSt10_Iter_baseIPPPN4Json5ValueELb0EE7_S_baseES4_ = comdat any

$_ZSt23__copy_move_backward_a2ILb0EPPPN4Json5ValueES4_ET1_T0_S6_S5_ = comdat any

$_ZSt22__copy_move_backward_aILb0EPPPN4Json5ValueES4_ET1_T0_S6_S5_ = comdat any

$_ZNSt20__copy_move_backwardILb0ELb1ESt26random_access_iterator_tagE13__copy_move_bIPPN4Json5ValueEEEPT_PKS7_SA_S8_ = comdat any

$_ZNSs12_S_constructIPKcEEPcT_S3_RKSaIcE = comdat any

$_ZNSs16_S_construct_auxIPKcEEPcT_S3_RKSaIcESt12__false_type = comdat any

$_ZNSs12_S_constructIPKcEEPcT_S3_RKSaIcESt20forward_iterator_tag = comdat any

$_ZSteqIcEbRKSaIT_ES3_ = comdat any

$_ZN9__gnu_cxx17__is_null_pointerIKcEEbPT_ = comdat any

$_ZSt8distanceIPKcENSt15iterator_traitsIT_E15difference_typeES3_S3_ = comdat any

$_ZSt10__distanceIPKcENSt15iterator_traitsIT_E15difference_typeES3_S3_St26random_access_iterator_tag = comdat any

$_ZSt19__iterator_categoryIPKcENSt15iterator_traitsIT_E17iterator_categoryERKS3_ = comdat any

$_ZNSt11char_traitsIcE6lengthEPKc = comdat any

$_ZN9__gnu_cxx13new_allocatorIN4Json6Reader9ErrorInfoEE9constructEPS3_RKS3_ = comdat any

$_ZNSt5dequeIN4Json6Reader9ErrorInfoESaIS2_EE16_M_push_back_auxERKS2_ = comdat any

$_ZN4Json6Reader9ErrorInfoC2ERKS1_ = comdat any

$_ZNSt5dequeIN4Json6Reader9ErrorInfoESaIS2_EE22_M_reserve_map_at_backEm = comdat any

$_ZNSt5dequeIN4Json6Reader9ErrorInfoESaIS2_EE17_M_reallocate_mapEmb = comdat any

$_ZSt4copyIPPN4Json6Reader9ErrorInfoES4_ET0_T_S6_S5_ = comdat any

$_ZSt13copy_backwardIPPN4Json6Reader9ErrorInfoES4_ET0_T_S6_S5_ = comdat any

$_ZSt14__copy_move_a2ILb0EPPN4Json6Reader9ErrorInfoES4_ET1_T0_S6_S5_ = comdat any

$_ZSt12__miter_baseIPPN4Json6Reader9ErrorInfoEENSt11_Miter_baseIT_E13iterator_typeES6_ = comdat any

$_ZSt13__copy_move_aILb0EPPN4Json6Reader9ErrorInfoES4_ET1_T0_S6_S5_ = comdat any

$_ZSt12__niter_baseIPPN4Json6Reader9ErrorInfoEENSt11_Niter_baseIT_E13iterator_typeES6_ = comdat any

$_ZNSt11__copy_moveILb0ELb1ESt26random_access_iterator_tagE8__copy_mIPN4Json6Reader9ErrorInfoEEEPT_PKS7_SA_S8_ = comdat any

$_ZNSt10_Iter_baseIPPN4Json6Reader9ErrorInfoELb0EE7_S_baseES4_ = comdat any

$_ZSt23__copy_move_backward_a2ILb0EPPN4Json6Reader9ErrorInfoES4_ET1_T0_S6_S5_ = comdat any

$_ZSt22__copy_move_backward_aILb0EPPN4Json6Reader9ErrorInfoES4_ET1_T0_S6_S5_ = comdat any

$_ZNSt20__copy_move_backwardILb0ELb1ESt26random_access_iterator_tagE13__copy_move_bIPN4Json6Reader9ErrorInfoEEEPT_PKS7_SA_S8_ = comdat any

$_ZStmiIN4Json6Reader9ErrorInfoERS2_PS2_ENSt15_Deque_iteratorIT_T0_T1_E15difference_typeERKS9_SC_ = comdat any

$_ZNSt5dequeIN4Json6Reader9ErrorInfoESaIS2_EE6insertESt15_Deque_iteratorIS2_RS2_PS2_EmRKS2_ = comdat any

$_ZNKSt15_Deque_iteratorIN4Json6Reader9ErrorInfoERS2_PS2_EplEl = comdat any

$_ZNSt5dequeIN4Json6Reader9ErrorInfoESaIS2_EE14_M_fill_insertESt15_Deque_iteratorIS2_RS2_PS2_EmRKS2_ = comdat any

$_ZNSt5dequeIN4Json6Reader9ErrorInfoESaIS2_EE28_M_reserve_elements_at_frontEm = comdat any

$_ZSt22__uninitialized_fill_aISt15_Deque_iteratorIN4Json6Reader9ErrorInfoERS3_PS3_ES3_S3_EvT_S7_RKT0_RSaIT1_E = comdat any

$_ZNSt5dequeIN4Json6Reader9ErrorInfoESaIS2_EE27_M_reserve_elements_at_backEm = comdat any

$_ZNSt5dequeIN4Json6Reader9ErrorInfoESaIS2_EE13_M_insert_auxESt15_Deque_iteratorIS2_RS2_PS2_EmRKS2_ = comdat any

$_ZNSt5dequeIN4Json6Reader9ErrorInfoESaIS2_EE24_M_new_elements_at_frontEm = comdat any

$_ZNKSt15_Deque_iteratorIN4Json6Reader9ErrorInfoERS2_PS2_EmiEl = comdat any

$_ZNKSt5dequeIN4Json6Reader9ErrorInfoESaIS2_EE8max_sizeEv = comdat any

$_ZNSt5dequeIN4Json6Reader9ErrorInfoESaIS2_EE23_M_reserve_map_at_frontEm = comdat any

$_ZNSt15_Deque_iteratorIN4Json6Reader9ErrorInfoERS2_PS2_EmIEl = comdat any

$_ZNSt15_Deque_iteratorIN4Json6Reader9ErrorInfoERS2_PS2_EpLEl = comdat any

$_ZSt18uninitialized_fillISt15_Deque_iteratorIN4Json6Reader9ErrorInfoERS3_PS3_ES3_EvT_S7_RKT0_ = comdat any

$_ZNSt20__uninitialized_fillILb0EE13__uninit_fillISt15_Deque_iteratorIN4Json6Reader9ErrorInfoERS5_PS5_ES5_EEvT_S9_RKT0_ = comdat any

$_ZStneIN4Json6Reader9ErrorInfoERS2_PS2_EbRKSt15_Deque_iteratorIT_T0_T1_ESB_ = comdat any

$_ZSt10_ConstructIN4Json6Reader9ErrorInfoES2_EvPT_RKT0_ = comdat any

$_ZNKSt15_Deque_iteratorIN4Json6Reader9ErrorInfoERS2_PS2_EdeEv = comdat any

$_ZNSt15_Deque_iteratorIN4Json6Reader9ErrorInfoERS2_PS2_EppEv = comdat any

$_ZSt8_DestroyISt15_Deque_iteratorIN4Json6Reader9ErrorInfoERS3_PS3_EEvT_S7_ = comdat any

$_ZSteqIN4Json6Reader9ErrorInfoERS2_PS2_EbRKSt15_Deque_iteratorIT_T0_T1_ESB_ = comdat any

$_ZNSt12_Destroy_auxILb0EE9__destroyISt15_Deque_iteratorIN4Json6Reader9ErrorInfoERS5_PS5_EEEvT_S9_ = comdat any

$_ZNSt5dequeIN4Json6Reader9ErrorInfoESaIS2_EE23_M_new_elements_at_backEm = comdat any

$_ZSt22__uninitialized_move_aISt15_Deque_iteratorIN4Json6Reader9ErrorInfoERS3_PS3_ES6_SaIS3_EET0_T_S9_S8_RT1_ = comdat any

$_ZSt4copyIN4Json6Reader9ErrorInfoEESt15_Deque_iteratorIT_RS4_PS4_ES7_S7_S7_ = comdat any

$_ZSt4fillIN4Json6Reader9ErrorInfoEEvRKSt15_Deque_iteratorIT_RS4_PS4_ES9_RKS4_ = comdat any

$_ZSt25__uninitialized_move_fillISt15_Deque_iteratorIN4Json6Reader9ErrorInfoERS3_PS3_ES6_S3_SaIS3_EEvT_S8_T0_S9_RKT1_RT2_ = comdat any

$_ZSt13copy_backwardIN4Json6Reader9ErrorInfoEESt15_Deque_iteratorIT_RS4_PS4_ES7_S7_S7_ = comdat any

$_ZSt25__uninitialized_fill_moveISt15_Deque_iteratorIN4Json6Reader9ErrorInfoERS3_PS3_ES3_S6_SaIS3_EET_S8_S8_RKT0_T1_SC_RT2_ = comdat any

$_ZSt22__uninitialized_copy_aISt15_Deque_iteratorIN4Json6Reader9ErrorInfoERS3_PS3_ES6_S3_ET0_T_S8_S7_RSaIT1_E = comdat any

$_ZSt18uninitialized_copyISt15_Deque_iteratorIN4Json6Reader9ErrorInfoERS3_PS3_ES6_ET0_T_S8_S7_ = comdat any

$_ZNSt20__uninitialized_copyILb0EE13__uninit_copyISt15_Deque_iteratorIN4Json6Reader9ErrorInfoERS5_PS5_ES8_EET0_T_SA_S9_ = comdat any

$_ZSt4copyIN4Json6Reader9ErrorInfoEESt15_Deque_iteratorIT_RS4_PS4_ES3_IS4_RKS4_PS8_ESB_S7_ = comdat any

$_ZNSt15_Deque_iteratorIN4Json6Reader9ErrorInfoERKS2_PS3_EC2ERKS_IS2_RS2_PS2_E = comdat any

$_ZStmiIN4Json6Reader9ErrorInfoERKS2_PS3_ENSt15_Deque_iteratorIT_T0_T1_E15difference_typeERKSA_SD_ = comdat any

$_ZSt3minIlERKT_S2_S2_ = comdat any

$_ZSt4copyIPN4Json6Reader9ErrorInfoES3_ET0_T_S5_S4_ = comdat any

$_ZNSt15_Deque_iteratorIN4Json6Reader9ErrorInfoERKS2_PS3_EpLEl = comdat any

$_ZNSt15_Deque_iteratorIN4Json6Reader9ErrorInfoERKS2_PS3_E14_S_buffer_sizeEv = comdat any

$_ZSt14__copy_move_a2ILb0EPN4Json6Reader9ErrorInfoES3_ET1_T0_S5_S4_ = comdat any

$_ZSt12__miter_baseIPN4Json6Reader9ErrorInfoEENSt11_Miter_baseIT_E13iterator_typeES5_ = comdat any

$_ZSt13__copy_move_aILb0EPN4Json6Reader9ErrorInfoES3_ET1_T0_S5_S4_ = comdat any

$_ZSt12__niter_baseIPN4Json6Reader9ErrorInfoEENSt11_Niter_baseIT_E13iterator_typeES5_ = comdat any

$_ZNSt11__copy_moveILb0ELb0ESt26random_access_iterator_tagE8__copy_mIPN4Json6Reader9ErrorInfoES6_EET0_T_S8_S7_ = comdat any

$_ZN4Json6Reader9ErrorInfoaSERKS1_ = comdat any

$_ZNSt10_Iter_baseIPN4Json6Reader9ErrorInfoELb0EE7_S_baseES3_ = comdat any

$_ZNSt15_Deque_iteratorIN4Json6Reader9ErrorInfoERKS2_PS3_E11_M_set_nodeEPPS2_ = comdat any

$_ZSt4fillIPN4Json6Reader9ErrorInfoES2_EvT_S4_RKT0_ = comdat any

$_ZSt8__fill_aIPN4Json6Reader9ErrorInfoES2_EN9__gnu_cxx11__enable_ifIXntsr11__is_scalarIT0_EE7__valueEvE6__typeET_S9_RKS6_ = comdat any

$_ZSt8_DestroyISt15_Deque_iteratorIN4Json6Reader9ErrorInfoERS3_PS3_ES3_EvT_S7_RSaIT0_E = comdat any

$_ZSt13copy_backwardIN4Json6Reader9ErrorInfoEESt15_Deque_iteratorIT_RS4_PS4_ES3_IS4_RKS4_PS8_ESB_S7_ = comdat any

$_ZSt13copy_backwardIPN4Json6Reader9ErrorInfoES3_ET0_T_S5_S4_ = comdat any

$_ZNSt15_Deque_iteratorIN4Json6Reader9ErrorInfoERKS2_PS3_EmIEl = comdat any

$_ZSt23__copy_move_backward_a2ILb0EPN4Json6Reader9ErrorInfoES3_ET1_T0_S5_S4_ = comdat any

$_ZSt22__copy_move_backward_aILb0EPN4Json6Reader9ErrorInfoES3_ET1_T0_S5_S4_ = comdat any

$_ZNSt20__copy_move_backwardILb0ELb0ESt26random_access_iterator_tagE13__copy_move_bIPN4Json6Reader9ErrorInfoES6_EET0_T_S8_S7_ = comdat any

$_ZNSt5dequeIPN4Json5ValueESaIS2_EE4backEv = comdat any

$_ZNSt15_Deque_iteratorIPN4Json5ValueERS2_PS2_EmmEv = comdat any

$_ZSteqIN4Json6Reader9ErrorInfoERKS2_PS3_EbRKSt15_Deque_iteratorIT_T0_T1_ESC_ = comdat any

$_ZNSt12_Vector_baseIN4Json6Reader15StructuredErrorESaIS2_EEC2Ev = comdat any

$_ZNSt12_Vector_baseIN4Json6Reader15StructuredErrorESaIS2_EE12_Vector_implC2Ev = comdat any

$_ZNSaIN4Json6Reader15StructuredErrorEEC2Ev = comdat any

$_ZN9__gnu_cxx13new_allocatorIN4Json6Reader15StructuredErrorEEC2Ev = comdat any

$_ZSt8_DestroyIPN4Json6Reader15StructuredErrorES2_EvT_S4_RSaIT0_E = comdat any

$_ZNSt12_Vector_baseIN4Json6Reader15StructuredErrorESaIS2_EE19_M_get_Tp_allocatorEv = comdat any

$_ZNSt12_Vector_baseIN4Json6Reader15StructuredErrorESaIS2_EED2Ev = comdat any

$_ZSt8_DestroyIPN4Json6Reader15StructuredErrorEEvT_S4_ = comdat any

$_ZNSt12_Destroy_auxILb0EE9__destroyIPN4Json6Reader15StructuredErrorEEEvT_S6_ = comdat any

$_ZSt8_DestroyIN4Json6Reader15StructuredErrorEEvPT_ = comdat any

$_ZSt11__addressofIN4Json6Reader15StructuredErrorEEPT_RS3_ = comdat any

$_ZNSt12_Vector_baseIN4Json6Reader15StructuredErrorESaIS2_EE13_M_deallocateEPS2_m = comdat any

$_ZNSt12_Vector_baseIN4Json6Reader15StructuredErrorESaIS2_EE12_Vector_implD2Ev = comdat any

$_ZN9__gnu_cxx13new_allocatorIN4Json6Reader15StructuredErrorEE10deallocateEPS3_m = comdat any

$_ZNSaIN4Json6Reader15StructuredErrorEED2Ev = comdat any

$_ZN9__gnu_cxx13new_allocatorIN4Json6Reader15StructuredErrorEED2Ev = comdat any

$_ZN9__gnu_cxx14__alloc_traitsISaIN4Json6Reader15StructuredErrorEEE9constructIS3_EEvRS4_PS3_RKT_ = comdat any

$_ZNSt6vectorIN4Json6Reader15StructuredErrorESaIS2_EE13_M_insert_auxEN9__gnu_cxx17__normal_iteratorIPS2_S4_EERKS2_ = comdat any

$_ZNSt6vectorIN4Json6Reader15StructuredErrorESaIS2_EE3endEv = comdat any

$_ZN9__gnu_cxx13new_allocatorIN4Json6Reader15StructuredErrorEE9constructEPS3_RKS3_ = comdat any

$_ZN4Json6Reader15StructuredErrorC2ERKS1_ = comdat any

$_ZSt13copy_backwardIPN4Json6Reader15StructuredErrorES3_ET0_T_S5_S4_ = comdat any

$_ZNK9__gnu_cxx17__normal_iteratorIPN4Json6Reader15StructuredErrorESt6vectorIS3_SaIS3_EEE4baseEv = comdat any

$_ZNK9__gnu_cxx17__normal_iteratorIPN4Json6Reader15StructuredErrorESt6vectorIS3_SaIS3_EEEdeEv = comdat any

$_ZN4Json6Reader15StructuredErroraSERKS1_ = comdat any

$_ZNKSt6vectorIN4Json6Reader15StructuredErrorESaIS2_EE12_M_check_lenEmPKc = comdat any

$_ZN9__gnu_cxxmiIPN4Json6Reader15StructuredErrorESt6vectorIS3_SaIS3_EEEENS_17__normal_iteratorIT_T0_E15difference_typeERKSB_SE_ = comdat any

$_ZNSt6vectorIN4Json6Reader15StructuredErrorESaIS2_EE5beginEv = comdat any

$_ZNSt12_Vector_baseIN4Json6Reader15StructuredErrorESaIS2_EE11_M_allocateEm = comdat any

$_ZSt34__uninitialized_move_if_noexcept_aIPN4Json6Reader15StructuredErrorES3_SaIS2_EET0_T_S6_S5_RT1_ = comdat any

$_ZN9__gnu_cxx14__alloc_traitsISaIN4Json6Reader15StructuredErrorEEE7destroyERS4_PS3_ = comdat any

$_ZSt23__copy_move_backward_a2ILb0EPN4Json6Reader15StructuredErrorES3_ET1_T0_S5_S4_ = comdat any

$_ZSt12__miter_baseIPN4Json6Reader15StructuredErrorEENSt11_Miter_baseIT_E13iterator_typeES5_ = comdat any

$_ZSt22__copy_move_backward_aILb0EPN4Json6Reader15StructuredErrorES3_ET1_T0_S5_S4_ = comdat any

$_ZSt12__niter_baseIPN4Json6Reader15StructuredErrorEENSt11_Niter_baseIT_E13iterator_typeES5_ = comdat any

$_ZNSt20__copy_move_backwardILb0ELb0ESt26random_access_iterator_tagE13__copy_move_bIPN4Json6Reader15StructuredErrorES6_EET0_T_S8_S7_ = comdat any

$_ZNSt10_Iter_baseIPN4Json6Reader15StructuredErrorELb0EE7_S_baseES3_ = comdat any

$_ZNKSt6vectorIN4Json6Reader15StructuredErrorESaIS2_EE8max_sizeEv = comdat any

$_ZNKSt6vectorIN4Json6Reader15StructuredErrorESaIS2_EE4sizeEv = comdat any

$_ZN9__gnu_cxx14__alloc_traitsISaIN4Json6Reader15StructuredErrorEEE8max_sizeERKS4_ = comdat any

$_ZNKSt12_Vector_baseIN4Json6Reader15StructuredErrorESaIS2_EE19_M_get_Tp_allocatorEv = comdat any

$_ZNK9__gnu_cxx13new_allocatorIN4Json6Reader15StructuredErrorEE8max_sizeEv = comdat any

$_ZN9__gnu_cxx17__normal_iteratorIPN4Json6Reader15StructuredErrorESt6vectorIS3_SaIS3_EEEC2ERKS4_ = comdat any

$_ZN9__gnu_cxx13new_allocatorIN4Json6Reader15StructuredErrorEE8allocateEmPKv = comdat any

$_ZSt22__uninitialized_copy_aIPN4Json6Reader15StructuredErrorES3_S2_ET0_T_S5_S4_RSaIT1_E = comdat any

$_ZSt18uninitialized_copyIPN4Json6Reader15StructuredErrorES3_ET0_T_S5_S4_ = comdat any

$_ZNSt20__uninitialized_copyILb0EE13__uninit_copyIPN4Json6Reader15StructuredErrorES5_EET0_T_S7_S6_ = comdat any

$_ZSt10_ConstructIN4Json6Reader15StructuredErrorES2_EvPT_RKT0_ = comdat any

$_ZN9__gnu_cxx13new_allocatorIN4Json6Reader15StructuredErrorEE7destroyEPS3_ = comdat any

@.str = private unnamed_addr constant [1 x i8] zeroinitializer, align 1
@.str.1 = private unnamed_addr constant [66 x i8] c"A valid JSON document must be either an array or an object value.\00", align 1
@.str.2 = private unnamed_addr constant [3 x i8] c"\0D\0A\00", align 1
@.str.3 = private unnamed_addr constant [47 x i8] c"Syntax error: value, object or array expected.\00", align 1
@.str.4 = private unnamed_addr constant [4 x i8] c"rue\00", align 1
@.str.5 = private unnamed_addr constant [5 x i8] c"alse\00", align 1
@.str.6 = private unnamed_addr constant [4 x i8] c"ull\00", align 1
@.str.7 = private unnamed_addr constant [17 x i8] c"collectComments_\00", align 1
@.str.8 = private unnamed_addr constant [83 x i8] c"/data/download/cmake/cmake-master/Utilities/cmjsoncpp/src/lib_json/json_reader.cpp\00", align 1
@__PRETTY_FUNCTION__._ZN4Json6Reader10addCommentEPKcS2_NS_16CommentPlacementE = private unnamed_addr constant [74 x i8] c"void Json::Reader::addComment(Location, Location, Json::CommentPlacement)\00", align 1
@.str.9 = private unnamed_addr constant [16 x i8] c"lastValue_ != 0\00", align 1
@.str.10 = private unnamed_addr constant [37 x i8] c"Missing ':' after object member name\00", align 1
@.str.11 = private unnamed_addr constant [41 x i8] c"Missing ',' or '}' in object declaration\00", align 1
@.str.12 = private unnamed_addr constant [34 x i8] c"Missing '}' or object member name\00", align 1
@.str.13 = private unnamed_addr constant [40 x i8] c"Missing ',' or ']' in array declaration\00", align 1
@_ZN4Json5Value13minLargestIntE = external constant i64, align 8
@_ZN4Json5Value14maxLargestUIntE = external constant i64, align 8
@.str.14 = private unnamed_addr constant [2 x i8] c"'\00", align 1
@.str.15 = private unnamed_addr constant [19 x i8] c"' is not a number.\00", align 1
@_ZN4Json5Value6maxIntE = external constant i32, align 4
@.str.16 = private unnamed_addr constant [29 x i8] c"Unable to parse token length\00", align 1
@_ZZN4Json6Reader12decodeDoubleERNS0_5TokenERNS_5ValueEE6format = private unnamed_addr constant [4 x i8] c"%lf\00", align 1
@.str.17 = private unnamed_addr constant [32 x i8] c"Empty escape sequence in string\00", align 1
@.str.18 = private unnamed_addr constant [30 x i8] c"Bad escape sequence in string\00", align 1
@.str.19 = private unnamed_addr constant [68 x i8] c"additional six characters expected to parse unicode surrogate pair.\00", align 1
@.str.20 = private unnamed_addr constant [80 x i8] c"expecting another \5Cu token to begin the second half of a unicode surrogate pair\00", align 1
@.str.21 = private unnamed_addr constant [61 x i8] c"Bad unicode escape sequence in string: four digits expected.\00", align 1
@.str.22 = private unnamed_addr constant [67 x i8] c"Bad unicode escape sequence in string: hexadecimal digit expected.\00", align 1
@.str.23 = private unnamed_addr constant [19 x i8] c"Line %d, Column %d\00", align 1
@.str.24 = private unnamed_addr constant [3 x i8] c"* \00", align 1
@.str.25 = private unnamed_addr constant [2 x i8] c"\0A\00", align 1
@.str.26 = private unnamed_addr constant [3 x i8] c"  \00", align 1
@.str.27 = private unnamed_addr constant [5 x i8] c"See \00", align 1
@.str.28 = private unnamed_addr constant [14 x i8] c" for detail.\0A\00", align 1
@stderr = external global %struct._IO_FILE*, align 8
@.str.29 = private unnamed_addr constant [22 x i8] c"Error from reader: %s\00", align 1
@.str.30 = private unnamed_addr constant [13 x i8] c"reader error\00", align 1
@_ZTISt13runtime_error = external constant i8*
@.str.31 = private unnamed_addr constant [42 x i8] c"basic_string::_S_construct null not valid\00", align 1
@.str.32 = private unnamed_addr constant [32 x i8] c"deque::_M_new_elements_at_front\00", align 1
@.str.33 = private unnamed_addr constant [31 x i8] c"deque::_M_new_elements_at_back\00", align 1
@.str.34 = private unnamed_addr constant [22 x i8] c"vector::_M_insert_aux\00", align 1

@_ZN4Json8FeaturesC1Ev = alias void (%"class.Json::Features"*), void (%"class.Json::Features"*)* @_ZN4Json8FeaturesC2Ev
@_ZN4Json6ReaderC1Ev = alias void (%"class.Json::Reader"*), void (%"class.Json::Reader"*)* @_ZN4Json6ReaderC2Ev
@_ZN4Json6ReaderC1ERKNS_8FeaturesE = alias void (%"class.Json::Reader"*, %"class.Json::Features"*), void (%"class.Json::Reader"*, %"class.Json::Features"*)* @_ZN4Json6ReaderC2ERKNS_8FeaturesE

; Function Attrs: nounwind uwtable
define void @_ZN4Json8FeaturesC2Ev(%"class.Json::Features"* %this) unnamed_addr #0 align 2 !dbg !2842 {
entry:
  %this.addr = alloca %"class.Json::Features"*, align 8
  store %"class.Json::Features"* %this, %"class.Json::Features"** %this.addr, align 8
  call void @llvm.dbg.declare(metadata %"class.Json::Features"** %this.addr, metadata !3816, metadata !3818), !dbg !3819
  %this1 = load %"class.Json::Features"*, %"class.Json::Features"** %this.addr, align 8
  %allowComments_ = getelementptr inbounds %"class.Json::Features", %"class.Json::Features"* %this1, i32 0, i32 0, !dbg !3820
  store i8 1, i8* %allowComments_, align 1, !dbg !3820
  %strictRoot_ = getelementptr inbounds %"class.Json::Features", %"class.Json::Features"* %this1, i32 0, i32 1, !dbg !3821
  store i8 0, i8* %strictRoot_, align 1, !dbg !3821
  %allowDroppedNullPlaceholders_ = getelementptr inbounds %"class.Json::Features", %"class.Json::Features"* %this1, i32 0, i32 2, !dbg !3822
  store i8 0, i8* %allowDroppedNullPlaceholders_, align 1, !dbg !3822
  %allowNumericKeys_ = getelementptr inbounds %"class.Json::Features", %"class.Json::Features"* %this1, i32 0, i32 3, !dbg !3823
  store i8 0, i8* %allowNumericKeys_, align 1, !dbg !3823
  ret void, !dbg !3824
}

; Function Attrs: nounwind readnone
declare void @llvm.dbg.declare(metadata, metadata, metadata) #1

; Function Attrs: uwtable
define i32 @_ZN4Json8Features3allEv() #2 align 2 !dbg !2843 {
entry:
  %retval = alloca %"class.Json::Features", align 1
  call void @_ZN4Json8FeaturesC1Ev(%"class.Json::Features"* %retval), !dbg !3825
  %0 = bitcast %"class.Json::Features"* %retval to i32*, !dbg !3826
  %1 = load i32, i32* %0, align 1, !dbg !3826
  ret i32 %1, !dbg !3826
}

; Function Attrs: uwtable
define i32 @_ZN4Json8Features10strictModeEv() #2 align 2 !dbg !2844 {
entry:
  %retval = alloca %"class.Json::Features", align 1
  call void @llvm.dbg.declare(metadata %"class.Json::Features"* %retval, metadata !3827, metadata !3818), !dbg !3828
  call void @_ZN4Json8FeaturesC1Ev(%"class.Json::Features"* %retval), !dbg !3828
  %allowComments_ = getelementptr inbounds %"class.Json::Features", %"class.Json::Features"* %retval, i32 0, i32 0, !dbg !3829
  store i8 0, i8* %allowComments_, align 1, !dbg !3830
  %strictRoot_ = getelementptr inbounds %"class.Json::Features", %"class.Json::Features"* %retval, i32 0, i32 1, !dbg !3831
  store i8 1, i8* %strictRoot_, align 1, !dbg !3832
  %allowDroppedNullPlaceholders_ = getelementptr inbounds %"class.Json::Features", %"class.Json::Features"* %retval, i32 0, i32 2, !dbg !3833
  store i8 0, i8* %allowDroppedNullPlaceholders_, align 1, !dbg !3834
  %allowNumericKeys_ = getelementptr inbounds %"class.Json::Features", %"class.Json::Features"* %retval, i32 0, i32 3, !dbg !3835
  store i8 0, i8* %allowNumericKeys_, align 1, !dbg !3836
  %0 = bitcast %"class.Json::Features"* %retval to i32*, !dbg !3837
  %1 = load i32, i32* %0, align 1, !dbg !3837
  ret i32 %1, !dbg !3837
}

; Function Attrs: uwtable
define void @_ZN4Json6ReaderC2Ev(%"class.Json::Reader"* %this) unnamed_addr #2 align 2 personality i8* bitcast (i32 (...)* @__gxx_personality_v0 to i8*) !dbg !2845 {
entry:
  %this.addr = alloca %"class.Json::Reader"*, align 8
  %ref.tmp = alloca %"class.std::deque", align 8
  %exn.slot = alloca i8*
  %ehselector.slot = alloca i32
  store %"class.Json::Reader"* %this, %"class.Json::Reader"** %this.addr, align 8
  call void @llvm.dbg.declare(metadata %"class.Json::Reader"** %this.addr, metadata !3838, metadata !3818), !dbg !3840
  %this1 = load %"class.Json::Reader"*, %"class.Json::Reader"** %this.addr, align 8
  %nodes_ = getelementptr inbounds %"class.Json::Reader", %"class.Json::Reader"* %this1, i32 0, i32 0, !dbg !3841
  call void @_ZNSt5dequeIPN4Json5ValueESaIS2_EEC2Ev(%"class.std::deque"* %ref.tmp), !dbg !3841
  invoke void @_ZNSt5stackIPN4Json5ValueESt5dequeIS2_SaIS2_EEEC2ERKS5_(%"class.std::stack"* %nodes_, %"class.std::deque"* dereferenceable(80) %ref.tmp)
          to label %invoke.cont unwind label %lpad, !dbg !3841

invoke.cont:                                      ; preds = %entry
  call void @_ZNSt5dequeIPN4Json5ValueESaIS2_EED2Ev(%"class.std::deque"* %ref.tmp), !dbg !3842
  %errors_ = getelementptr inbounds %"class.Json::Reader", %"class.Json::Reader"* %this1, i32 0, i32 1, !dbg !3844
  invoke void @_ZNSt5dequeIN4Json6Reader9ErrorInfoESaIS2_EEC2Ev(%"class.std::deque.3"* %errors_)
          to label %invoke.cont4 unwind label %lpad3, !dbg !3844

invoke.cont4:                                     ; preds = %invoke.cont
  %document_ = getelementptr inbounds %"class.Json::Reader", %"class.Json::Reader"* %this1, i32 0, i32 2, !dbg !3845
  invoke void @_ZNSsC1Ev(%"class.std::basic_string"* %document_)
          to label %invoke.cont6 unwind label %lpad5, !dbg !3845

invoke.cont6:                                     ; preds = %invoke.cont4
  %begin_ = getelementptr inbounds %"class.Json::Reader", %"class.Json::Reader"* %this1, i32 0, i32 3, !dbg !3846
  store i8* null, i8** %begin_, align 8, !dbg !3846
  %end_ = getelementptr inbounds %"class.Json::Reader", %"class.Json::Reader"* %this1, i32 0, i32 4, !dbg !3848
  store i8* null, i8** %end_, align 8, !dbg !3848
  %current_ = getelementptr inbounds %"class.Json::Reader", %"class.Json::Reader"* %this1, i32 0, i32 5, !dbg !3849
  store i8* null, i8** %current_, align 8, !dbg !3849
  %lastValueEnd_ = getelementptr inbounds %"class.Json::Reader", %"class.Json::Reader"* %this1, i32 0, i32 6, !dbg !3850
  store i8* null, i8** %lastValueEnd_, align 8, !dbg !3850
  %lastValue_ = getelementptr inbounds %"class.Json::Reader", %"class.Json::Reader"* %this1, i32 0, i32 7, !dbg !3851
  store %"class.Json::Value"* null, %"class.Json::Value"** %lastValue_, align 8, !dbg !3851
  %commentsBefore_ = getelementptr inbounds %"class.Json::Reader", %"class.Json::Reader"* %this1, i32 0, i32 8, !dbg !3852
  invoke void @_ZNSsC1Ev(%"class.std::basic_string"* %commentsBefore_)
          to label %invoke.cont8 unwind label %lpad7, !dbg !3852

invoke.cont8:                                     ; preds = %invoke.cont6
  %features_ = getelementptr inbounds %"class.Json::Reader", %"class.Json::Reader"* %this1, i32 0, i32 9, !dbg !3853
  %call = invoke i32 @_ZN4Json8Features3allEv()
          to label %invoke.cont10 unwind label %lpad9, !dbg !3854

invoke.cont10:                                    ; preds = %invoke.cont8
  %0 = bitcast %"class.Json::Features"* %features_ to i32*, !dbg !3855
  store i32 %call, i32* %0, align 8, !dbg !3855
  %collectComments_ = getelementptr inbounds %"class.Json::Reader", %"class.Json::Reader"* %this1, i32 0, i32 10, !dbg !3856
  store i8 0, i8* %collectComments_, align 4, !dbg !3856
  ret void, !dbg !3857

lpad:                                             ; preds = %entry
  %1 = landingpad { i8*, i32 }
          cleanup, !dbg !3858
  %2 = extractvalue { i8*, i32 } %1, 0, !dbg !3858
  store i8* %2, i8** %exn.slot, align 8, !dbg !3858
  %3 = extractvalue { i8*, i32 } %1, 1, !dbg !3858
  store i32 %3, i32* %ehselector.slot, align 4, !dbg !3858
  invoke void @_ZNSt5dequeIPN4Json5ValueESaIS2_EED2Ev(%"class.std::deque"* %ref.tmp)
          to label %invoke.cont2 unwind label %terminate.lpad, !dbg !3859

invoke.cont2:                                     ; preds = %lpad
  br label %eh.resume, !dbg !3860

lpad3:                                            ; preds = %invoke.cont
  %4 = landingpad { i8*, i32 }
          cleanup, !dbg !3862
  %5 = extractvalue { i8*, i32 } %4, 0, !dbg !3862
  store i8* %5, i8** %exn.slot, align 8, !dbg !3862
  %6 = extractvalue { i8*, i32 } %4, 1, !dbg !3862
  store i32 %6, i32* %ehselector.slot, align 4, !dbg !3862
  br label %ehcleanup15, !dbg !3862

lpad5:                                            ; preds = %invoke.cont4
  %7 = landingpad { i8*, i32 }
          cleanup, !dbg !3863
  %8 = extractvalue { i8*, i32 } %7, 0, !dbg !3863
  store i8* %8, i8** %exn.slot, align 8, !dbg !3863
  %9 = extractvalue { i8*, i32 } %7, 1, !dbg !3863
  store i32 %9, i32* %ehselector.slot, align 4, !dbg !3863
  br label %ehcleanup13, !dbg !3863

lpad7:                                            ; preds = %invoke.cont6
  %10 = landingpad { i8*, i32 }
          cleanup, !dbg !3864
  %11 = extractvalue { i8*, i32 } %10, 0, !dbg !3864
  store i8* %11, i8** %exn.slot, align 8, !dbg !3864
  %12 = extractvalue { i8*, i32 } %10, 1, !dbg !3864
  store i32 %12, i32* %ehselector.slot, align 4, !dbg !3864
  br label %ehcleanup, !dbg !3864

lpad9:                                            ; preds = %invoke.cont8
  %13 = landingpad { i8*, i32 }
          cleanup, !dbg !3866
  %14 = extractvalue { i8*, i32 } %13, 0, !dbg !3866
  store i8* %14, i8** %exn.slot, align 8, !dbg !3866
  %15 = extractvalue { i8*, i32 } %13, 1, !dbg !3866
  store i32 %15, i32* %ehselector.slot, align 4, !dbg !3866
  invoke void @_ZNSsD1Ev(%"class.std::basic_string"* %commentsBefore_)
          to label %invoke.cont11 unwind label %terminate.lpad, !dbg !3866

invoke.cont11:                                    ; preds = %lpad9
  br label %ehcleanup, !dbg !3868

ehcleanup:                                        ; preds = %invoke.cont11, %lpad7
  invoke void @_ZNSsD1Ev(%"class.std::basic_string"* %document_)
          to label %invoke.cont12 unwind label %terminate.lpad, !dbg !3871

invoke.cont12:                                    ; preds = %ehcleanup
  br label %ehcleanup13, !dbg !3873

ehcleanup13:                                      ; preds = %invoke.cont12, %lpad5
  invoke void @_ZNSt5dequeIN4Json6Reader9ErrorInfoESaIS2_EED2Ev(%"class.std::deque.3"* %errors_)
          to label %invoke.cont14 unwind label %terminate.lpad, !dbg !3875

invoke.cont14:                                    ; preds = %ehcleanup13
  br label %ehcleanup15, !dbg !3877

ehcleanup15:                                      ; preds = %invoke.cont14, %lpad3
  invoke void @_ZNSt5stackIPN4Json5ValueESt5dequeIS2_SaIS2_EEED2Ev(%"class.std::stack"* %nodes_)
          to label %invoke.cont16 unwind label %terminate.lpad, !dbg !3879

invoke.cont16:                                    ; preds = %ehcleanup15
  br label %eh.resume, !dbg !3881

eh.resume:                                        ; preds = %invoke.cont16, %invoke.cont2
  %exn = load i8*, i8** %exn.slot, align 8, !dbg !3883
  %sel = load i32, i32* %ehselector.slot, align 4, !dbg !3883
  %lpad.val = insertvalue { i8*, i32 } undef, i8* %exn, 0, !dbg !3883
  %lpad.val17 = insertvalue { i8*, i32 } %lpad.val, i32 %sel, 1, !dbg !3883
  resume { i8*, i32 } %lpad.val17, !dbg !3883

terminate.lpad:                                   ; preds = %ehcleanup15, %ehcleanup13, %ehcleanup, %lpad9, %lpad
  %16 = landingpad { i8*, i32 }
          catch i8* null, !dbg !3884
  %17 = extractvalue { i8*, i32 } %16, 0, !dbg !3884
  call void @__clang_call_terminate(i8* %17) #13, !dbg !3884
  unreachable, !dbg !3884
}

; Function Attrs: uwtable
define linkonce_odr void @_ZNSt5dequeIPN4Json5ValueESaIS2_EEC2Ev(%"class.std::deque"* %this) unnamed_addr #2 comdat align 2 !dbg !2963 {
entry:
  %this.addr = alloca %"class.std::deque"*, align 8
  store %"class.std::deque"* %this, %"class.std::deque"** %this.addr, align 8
  call void @llvm.dbg.declare(metadata %"class.std::deque"** %this.addr, metadata !3885, metadata !3818), !dbg !3887
  %this1 = load %"class.std::deque"*, %"class.std::deque"** %this.addr, align 8
  %0 = bitcast %"class.std::deque"* %this1 to %"class.std::_Deque_base"*, !dbg !3888
  call void @_ZNSt11_Deque_baseIPN4Json5ValueESaIS2_EEC2Ev(%"class.std::_Deque_base"* %0), !dbg !3889
  ret void, !dbg !3890
}

; Function Attrs: uwtable
define linkonce_odr void @_ZNSt5stackIPN4Json5ValueESt5dequeIS2_SaIS2_EEEC2ERKS5_(%"class.std::stack"* %this, %"class.std::deque"* dereferenceable(80) %__c) unnamed_addr #2 comdat align 2 !dbg !3004 {
entry:
  %this.addr = alloca %"class.std::stack"*, align 8
  %__c.addr = alloca %"class.std::deque"*, align 8
  store %"class.std::stack"* %this, %"class.std::stack"** %this.addr, align 8
  call void @llvm.dbg.declare(metadata %"class.std::stack"** %this.addr, metadata !3891, metadata !3818), !dbg !3893
  store %"class.std::deque"* %__c, %"class.std::deque"** %__c.addr, align 8
  call void @llvm.dbg.declare(metadata %"class.std::deque"** %__c.addr, metadata !3894, metadata !3818), !dbg !3895
  %this1 = load %"class.std::stack"*, %"class.std::stack"** %this.addr, align 8
  %c = getelementptr inbounds %"class.std::stack", %"class.std::stack"* %this1, i32 0, i32 0, !dbg !3896
  %0 = load %"class.std::deque"*, %"class.std::deque"** %__c.addr, align 8, !dbg !3897
  call void @_ZNSt5dequeIPN4Json5ValueESaIS2_EEC2ERKS4_(%"class.std::deque"* %c, %"class.std::deque"* dereferenceable(80) %0), !dbg !3896
  ret void, !dbg !3898
}

declare i32 @__gxx_personality_v0(...)

; Function Attrs: uwtable
define linkonce_odr void @_ZNSt5dequeIPN4Json5ValueESaIS2_EED2Ev(%"class.std::deque"* %this) unnamed_addr #2 comdat align 2 personality i8* bitcast (i32 (...)* @__gxx_personality_v0 to i8*) !dbg !2997 {
entry:
  %this.addr = alloca %"class.std::deque"*, align 8
  %agg.tmp = alloca %"struct.std::_Deque_iterator", align 8
  %exn.slot = alloca i8*
  %ehselector.slot = alloca i32
  %agg.tmp2 = alloca %"struct.std::_Deque_iterator", align 8
  store %"class.std::deque"* %this, %"class.std::deque"** %this.addr, align 8
  call void @llvm.dbg.declare(metadata %"class.std::deque"** %this.addr, metadata !3899, metadata !3818), !dbg !3900
  %this1 = load %"class.std::deque"*, %"class.std::deque"** %this.addr, align 8
  invoke void @_ZNSt5dequeIPN4Json5ValueESaIS2_EE5beginEv(%"struct.std::_Deque_iterator"* sret %agg.tmp, %"class.std::deque"* %this1)
          to label %invoke.cont unwind label %lpad, !dbg !3901

invoke.cont:                                      ; preds = %entry
  invoke void @_ZNSt5dequeIPN4Json5ValueESaIS2_EE3endEv(%"struct.std::_Deque_iterator"* sret %agg.tmp2, %"class.std::deque"* %this1)
          to label %invoke.cont3 unwind label %lpad, !dbg !3903

invoke.cont3:                                     ; preds = %invoke.cont
  %0 = bitcast %"class.std::deque"* %this1 to %"class.std::_Deque_base"*, !dbg !3905
  %call = invoke dereferenceable(1) %"class.std::allocator"* @_ZNSt11_Deque_baseIPN4Json5ValueESaIS2_EE19_M_get_Tp_allocatorEv(%"class.std::_Deque_base"* %0)
          to label %invoke.cont4 unwind label %lpad, !dbg !3905

invoke.cont4:                                     ; preds = %invoke.cont3
  invoke void @_ZNSt5dequeIPN4Json5ValueESaIS2_EE15_M_destroy_dataESt15_Deque_iteratorIS2_RS2_PS2_ES8_RKS3_(%"class.std::deque"* %this1, %"struct.std::_Deque_iterator"* %agg.tmp, %"struct.std::_Deque_iterator"* %agg.tmp2, %"class.std::allocator"* dereferenceable(1) %call)
          to label %invoke.cont5 unwind label %lpad, !dbg !3907

invoke.cont5:                                     ; preds = %invoke.cont4
  %1 = bitcast %"class.std::deque"* %this1 to %"class.std::_Deque_base"*, !dbg !3909
  call void @_ZNSt11_Deque_baseIPN4Json5ValueESaIS2_EED2Ev(%"class.std::_Deque_base"* %1), !dbg !3909
  ret void, !dbg !3909

lpad:                                             ; preds = %invoke.cont4, %invoke.cont3, %invoke.cont, %entry
  %2 = landingpad { i8*, i32 }
          cleanup, !dbg !3911
  %3 = extractvalue { i8*, i32 } %2, 0, !dbg !3911
  store i8* %3, i8** %exn.slot, align 8, !dbg !3911
  %4 = extractvalue { i8*, i32 } %2, 1, !dbg !3911
  store i32 %4, i32* %ehselector.slot, align 4, !dbg !3911
  %5 = bitcast %"class.std::deque"* %this1 to %"class.std::_Deque_base"*, !dbg !3911
  invoke void @_ZNSt11_Deque_baseIPN4Json5ValueESaIS2_EED2Ev(%"class.std::_Deque_base"* %5)
          to label %invoke.cont6 unwind label %terminate.lpad, !dbg !3911

invoke.cont6:                                     ; preds = %lpad
  br label %eh.resume, !dbg !3913

eh.resume:                                        ; preds = %invoke.cont6
  %exn = load i8*, i8** %exn.slot, align 8, !dbg !3915
  %sel = load i32, i32* %ehselector.slot, align 4, !dbg !3915
  %lpad.val = insertvalue { i8*, i32 } undef, i8* %exn, 0, !dbg !3915
  %lpad.val7 = insertvalue { i8*, i32 } %lpad.val, i32 %sel, 1, !dbg !3915
  resume { i8*, i32 } %lpad.val7, !dbg !3915

terminate.lpad:                                   ; preds = %lpad
  %6 = landingpad { i8*, i32 }
          catch i8* null, !dbg !3917
  %7 = extractvalue { i8*, i32 } %6, 0, !dbg !3917
  call void @__clang_call_terminate(i8* %7) #13, !dbg !3917
  unreachable, !dbg !3917
}

; Function Attrs: noinline noreturn nounwind
define linkonce_odr hidden void @__clang_call_terminate(i8*) #3 comdat {
  %2 = call i8* @__cxa_begin_catch(i8* %0) #14
  call void @_ZSt9terminatev() #13
  unreachable
}

declare i8* @__cxa_begin_catch(i8*)

declare void @_ZSt9terminatev()

; Function Attrs: uwtable
define linkonce_odr void @_ZNSt5dequeIN4Json6Reader9ErrorInfoESaIS2_EEC2Ev(%"class.std::deque.3"* %this) unnamed_addr #2 comdat align 2 !dbg !2919 {
entry:
  %this.addr = alloca %"class.std::deque.3"*, align 8
  store %"class.std::deque.3"* %this, %"class.std::deque.3"** %this.addr, align 8
  call void @llvm.dbg.declare(metadata %"class.std::deque.3"** %this.addr, metadata !3919, metadata !3818), !dbg !3921
  %this1 = load %"class.std::deque.3"*, %"class.std::deque.3"** %this.addr, align 8
  %0 = bitcast %"class.std::deque.3"* %this1 to %"class.std::_Deque_base.4"*, !dbg !3922
  call void @_ZNSt11_Deque_baseIN4Json6Reader9ErrorInfoESaIS2_EEC2Ev(%"class.std::_Deque_base.4"* %0), !dbg !3923
  ret void, !dbg !3924
}

declare void @_ZNSsC1Ev(%"class.std::basic_string"*) #4

declare void @_ZNSsD1Ev(%"class.std::basic_string"*) #4

; Function Attrs: uwtable
define linkonce_odr void @_ZNSt5dequeIN4Json6Reader9ErrorInfoESaIS2_EED2Ev(%"class.std::deque.3"* %this) unnamed_addr #2 comdat align 2 personality i8* bitcast (i32 (...)* @__gxx_personality_v0 to i8*) !dbg !3057 {
entry:
  %this.addr = alloca %"class.std::deque.3"*, align 8
  %agg.tmp = alloca %"struct.std::_Deque_iterator.11", align 8
  %exn.slot = alloca i8*
  %ehselector.slot = alloca i32
  %agg.tmp2 = alloca %"struct.std::_Deque_iterator.11", align 8
  store %"class.std::deque.3"* %this, %"class.std::deque.3"** %this.addr, align 8
  call void @llvm.dbg.declare(metadata %"class.std::deque.3"** %this.addr, metadata !3925, metadata !3818), !dbg !3926
  %this1 = load %"class.std::deque.3"*, %"class.std::deque.3"** %this.addr, align 8
  invoke void @_ZNSt5dequeIN4Json6Reader9ErrorInfoESaIS2_EE5beginEv(%"struct.std::_Deque_iterator.11"* sret %agg.tmp, %"class.std::deque.3"* %this1)
          to label %invoke.cont unwind label %lpad, !dbg !3927

invoke.cont:                                      ; preds = %entry
  invoke void @_ZNSt5dequeIN4Json6Reader9ErrorInfoESaIS2_EE3endEv(%"struct.std::_Deque_iterator.11"* sret %agg.tmp2, %"class.std::deque.3"* %this1)
          to label %invoke.cont3 unwind label %lpad, !dbg !3929

invoke.cont3:                                     ; preds = %invoke.cont
  %0 = bitcast %"class.std::deque.3"* %this1 to %"class.std::_Deque_base.4"*, !dbg !3931
  %call = invoke dereferenceable(1) %"class.std::allocator.5"* @_ZNSt11_Deque_baseIN4Json6Reader9ErrorInfoESaIS2_EE19_M_get_Tp_allocatorEv(%"class.std::_Deque_base.4"* %0)
          to label %invoke.cont4 unwind label %lpad, !dbg !3931

invoke.cont4:                                     ; preds = %invoke.cont3
  invoke void @_ZNSt5dequeIN4Json6Reader9ErrorInfoESaIS2_EE15_M_destroy_dataESt15_Deque_iteratorIS2_RS2_PS2_ES8_RKS3_(%"class.std::deque.3"* %this1, %"struct.std::_Deque_iterator.11"* %agg.tmp, %"struct.std::_Deque_iterator.11"* %agg.tmp2, %"class.std::allocator.5"* dereferenceable(1) %call)
          to label %invoke.cont5 unwind label %lpad, !dbg !3933

invoke.cont5:                                     ; preds = %invoke.cont4
  %1 = bitcast %"class.std::deque.3"* %this1 to %"class.std::_Deque_base.4"*, !dbg !3935
  call void @_ZNSt11_Deque_baseIN4Json6Reader9ErrorInfoESaIS2_EED2Ev(%"class.std::_Deque_base.4"* %1), !dbg !3935
  ret void, !dbg !3935

lpad:                                             ; preds = %invoke.cont4, %invoke.cont3, %invoke.cont, %entry
  %2 = landingpad { i8*, i32 }
          cleanup, !dbg !3937
  %3 = extractvalue { i8*, i32 } %2, 0, !dbg !3937
  store i8* %3, i8** %exn.slot, align 8, !dbg !3937
  %4 = extractvalue { i8*, i32 } %2, 1, !dbg !3937
  store i32 %4, i32* %ehselector.slot, align 4, !dbg !3937
  %5 = bitcast %"class.std::deque.3"* %this1 to %"class.std::_Deque_base.4"*, !dbg !3937
  invoke void @_ZNSt11_Deque_baseIN4Json6Reader9ErrorInfoESaIS2_EED2Ev(%"class.std::_Deque_base.4"* %5)
          to label %invoke.cont6 unwind label %terminate.lpad, !dbg !3937

invoke.cont6:                                     ; preds = %lpad
  br label %eh.resume, !dbg !3939

eh.resume:                                        ; preds = %invoke.cont6
  %exn = load i8*, i8** %exn.slot, align 8, !dbg !3941
  %sel = load i32, i32* %ehselector.slot, align 4, !dbg !3941
  %lpad.val = insertvalue { i8*, i32 } undef, i8* %exn, 0, !dbg !3941
  %lpad.val7 = insertvalue { i8*, i32 } %lpad.val, i32 %sel, 1, !dbg !3941
  resume { i8*, i32 } %lpad.val7, !dbg !3941

terminate.lpad:                                   ; preds = %lpad
  %6 = landingpad { i8*, i32 }
          catch i8* null, !dbg !3943
  %7 = extractvalue { i8*, i32 } %6, 0, !dbg !3943
  call void @__clang_call_terminate(i8* %7) #13, !dbg !3943
  unreachable, !dbg !3943
}

; Function Attrs: inlinehint uwtable
define linkonce_odr void @_ZNSt5stackIPN4Json5ValueESt5dequeIS2_SaIS2_EEED2Ev(%"class.std::stack"* %this) unnamed_addr #5 comdat align 2 !dbg !2888 {
entry:
  %this.addr = alloca %"class.std::stack"*, align 8
  store %"class.std::stack"* %this, %"class.std::stack"** %this.addr, align 8
  call void @llvm.dbg.declare(metadata %"class.std::stack"** %this.addr, metadata !3945, metadata !3818), !dbg !3946
  %this1 = load %"class.std::stack"*, %"class.std::stack"** %this.addr, align 8
  %c = getelementptr inbounds %"class.std::stack", %"class.std::stack"* %this1, i32 0, i32 0, !dbg !3947
  call void @_ZNSt5dequeIPN4Json5ValueESaIS2_EED2Ev(%"class.std::deque"* %c), !dbg !3947
  ret void, !dbg !3949
}

; Function Attrs: uwtable
define void @_ZN4Json6ReaderC2ERKNS_8FeaturesE(%"class.Json::Reader"* %this, %"class.Json::Features"* dereferenceable(4) %features) unnamed_addr #2 align 2 personality i8* bitcast (i32 (...)* @__gxx_personality_v0 to i8*) !dbg !2846 {
entry:
  %this.addr = alloca %"class.Json::Reader"*, align 8
  %features.addr = alloca %"class.Json::Features"*, align 8
  %ref.tmp = alloca %"class.std::deque", align 8
  %exn.slot = alloca i8*
  %ehselector.slot = alloca i32
  store %"class.Json::Reader"* %this, %"class.Json::Reader"** %this.addr, align 8
  call void @llvm.dbg.declare(metadata %"class.Json::Reader"** %this.addr, metadata !3950, metadata !3818), !dbg !3951
  store %"class.Json::Features"* %features, %"class.Json::Features"** %features.addr, align 8
  call void @llvm.dbg.declare(metadata %"class.Json::Features"** %features.addr, metadata !3952, metadata !3818), !dbg !3953
  %this1 = load %"class.Json::Reader"*, %"class.Json::Reader"** %this.addr, align 8
  %nodes_ = getelementptr inbounds %"class.Json::Reader", %"class.Json::Reader"* %this1, i32 0, i32 0, !dbg !3954
  call void @_ZNSt5dequeIPN4Json5ValueESaIS2_EEC2Ev(%"class.std::deque"* %ref.tmp), !dbg !3954
  invoke void @_ZNSt5stackIPN4Json5ValueESt5dequeIS2_SaIS2_EEEC2ERKS5_(%"class.std::stack"* %nodes_, %"class.std::deque"* dereferenceable(80) %ref.tmp)
          to label %invoke.cont unwind label %lpad, !dbg !3954

invoke.cont:                                      ; preds = %entry
  call void @_ZNSt5dequeIPN4Json5ValueESaIS2_EED2Ev(%"class.std::deque"* %ref.tmp), !dbg !3955
  %errors_ = getelementptr inbounds %"class.Json::Reader", %"class.Json::Reader"* %this1, i32 0, i32 1, !dbg !3957
  invoke void @_ZNSt5dequeIN4Json6Reader9ErrorInfoESaIS2_EEC2Ev(%"class.std::deque.3"* %errors_)
          to label %invoke.cont4 unwind label %lpad3, !dbg !3957

invoke.cont4:                                     ; preds = %invoke.cont
  %document_ = getelementptr inbounds %"class.Json::Reader", %"class.Json::Reader"* %this1, i32 0, i32 2, !dbg !3958
  invoke void @_ZNSsC1Ev(%"class.std::basic_string"* %document_)
          to label %invoke.cont6 unwind label %lpad5, !dbg !3958

invoke.cont6:                                     ; preds = %invoke.cont4
  %begin_ = getelementptr inbounds %"class.Json::Reader", %"class.Json::Reader"* %this1, i32 0, i32 3, !dbg !3959
  store i8* null, i8** %begin_, align 8, !dbg !3959
  %end_ = getelementptr inbounds %"class.Json::Reader", %"class.Json::Reader"* %this1, i32 0, i32 4, !dbg !3961
  store i8* null, i8** %end_, align 8, !dbg !3961
  %current_ = getelementptr inbounds %"class.Json::Reader", %"class.Json::Reader"* %this1, i32 0, i32 5, !dbg !3962
  store i8* null, i8** %current_, align 8, !dbg !3962
  %lastValueEnd_ = getelementptr inbounds %"class.Json::Reader", %"class.Json::Reader"* %this1, i32 0, i32 6, !dbg !3963
  store i8* null, i8** %lastValueEnd_, align 8, !dbg !3963
  %lastValue_ = getelementptr inbounds %"class.Json::Reader", %"class.Json::Reader"* %this1, i32 0, i32 7, !dbg !3964
  store %"class.Json::Value"* null, %"class.Json::Value"** %lastValue_, align 8, !dbg !3964
  %commentsBefore_ = getelementptr inbounds %"class.Json::Reader", %"class.Json::Reader"* %this1, i32 0, i32 8, !dbg !3965
  invoke void @_ZNSsC1Ev(%"class.std::basic_string"* %commentsBefore_)
          to label %invoke.cont8 unwind label %lpad7, !dbg !3965

invoke.cont8:                                     ; preds = %invoke.cont6
  %features_ = getelementptr inbounds %"class.Json::Reader", %"class.Json::Reader"* %this1, i32 0, i32 9, !dbg !3966
  %0 = load %"class.Json::Features"*, %"class.Json::Features"** %features.addr, align 8, !dbg !3967
  %1 = bitcast %"class.Json::Features"* %features_ to i8*, !dbg !3966
  %2 = bitcast %"class.Json::Features"* %0 to i8*, !dbg !3966
  call void @llvm.memcpy.p0i8.p0i8.i64(i8* %1, i8* %2, i64 4, i32 1, i1 false), !dbg !3966
  %collectComments_ = getelementptr inbounds %"class.Json::Reader", %"class.Json::Reader"* %this1, i32 0, i32 10, !dbg !3968
  store i8 0, i8* %collectComments_, align 4, !dbg !3968
  ret void, !dbg !3969

lpad:                                             ; preds = %entry
  %3 = landingpad { i8*, i32 }
          cleanup, !dbg !3970
  %4 = extractvalue { i8*, i32 } %3, 0, !dbg !3970
  store i8* %4, i8** %exn.slot, align 8, !dbg !3970
  %5 = extractvalue { i8*, i32 } %3, 1, !dbg !3970
  store i32 %5, i32* %ehselector.slot, align 4, !dbg !3970
  invoke void @_ZNSt5dequeIPN4Json5ValueESaIS2_EED2Ev(%"class.std::deque"* %ref.tmp)
          to label %invoke.cont2 unwind label %terminate.lpad, !dbg !3971

invoke.cont2:                                     ; preds = %lpad
  br label %eh.resume, !dbg !3972

lpad3:                                            ; preds = %invoke.cont
  %6 = landingpad { i8*, i32 }
          cleanup, !dbg !3974
  %7 = extractvalue { i8*, i32 } %6, 0, !dbg !3974
  store i8* %7, i8** %exn.slot, align 8, !dbg !3974
  %8 = extractvalue { i8*, i32 } %6, 1, !dbg !3974
  store i32 %8, i32* %ehselector.slot, align 4, !dbg !3974
  br label %ehcleanup11, !dbg !3974

lpad5:                                            ; preds = %invoke.cont4
  %9 = landingpad { i8*, i32 }
          cleanup, !dbg !3975
  %10 = extractvalue { i8*, i32 } %9, 0, !dbg !3975
  store i8* %10, i8** %exn.slot, align 8, !dbg !3975
  %11 = extractvalue { i8*, i32 } %9, 1, !dbg !3975
  store i32 %11, i32* %ehselector.slot, align 4, !dbg !3975
  br label %ehcleanup, !dbg !3975

lpad7:                                            ; preds = %invoke.cont6
  %12 = landingpad { i8*, i32 }
          cleanup, !dbg !3976
  %13 = extractvalue { i8*, i32 } %12, 0, !dbg !3976
  store i8* %13, i8** %exn.slot, align 8, !dbg !3976
  %14 = extractvalue { i8*, i32 } %12, 1, !dbg !3976
  store i32 %14, i32* %ehselector.slot, align 4, !dbg !3976
  invoke void @_ZNSsD1Ev(%"class.std::basic_string"* %document_)
          to label %invoke.cont9 unwind label %terminate.lpad, !dbg !3976

invoke.cont9:                                     ; preds = %lpad7
  br label %ehcleanup, !dbg !3978

ehcleanup:                                        ; preds = %invoke.cont9, %lpad5
  invoke void @_ZNSt5dequeIN4Json6Reader9ErrorInfoESaIS2_EED2Ev(%"class.std::deque.3"* %errors_)
          to label %invoke.cont10 unwind label %terminate.lpad, !dbg !3981

invoke.cont10:                                    ; preds = %ehcleanup
  br label %ehcleanup11, !dbg !3983

ehcleanup11:                                      ; preds = %invoke.cont10, %lpad3
  invoke void @_ZNSt5stackIPN4Json5ValueESt5dequeIS2_SaIS2_EEED2Ev(%"class.std::stack"* %nodes_)
          to label %invoke.cont12 unwind label %terminate.lpad, !dbg !3985

invoke.cont12:                                    ; preds = %ehcleanup11
  br label %eh.resume, !dbg !3987

eh.resume:                                        ; preds = %invoke.cont12, %invoke.cont2
  %exn = load i8*, i8** %exn.slot, align 8, !dbg !3989
  %sel = load i32, i32* %ehselector.slot, align 4, !dbg !3989
  %lpad.val = insertvalue { i8*, i32 } undef, i8* %exn, 0, !dbg !3989
  %lpad.val13 = insertvalue { i8*, i32 } %lpad.val, i32 %sel, 1, !dbg !3989
  resume { i8*, i32 } %lpad.val13, !dbg !3989

terminate.lpad:                                   ; preds = %ehcleanup11, %ehcleanup, %lpad7, %lpad
  %15 = landingpad { i8*, i32 }
          catch i8* null, !dbg !3990
  %16 = extractvalue { i8*, i32 } %15, 0, !dbg !3990
  call void @__clang_call_terminate(i8* %16) #13, !dbg !3990
  unreachable, !dbg !3990
}

; Function Attrs: argmemonly nounwind
declare void @llvm.memcpy.p0i8.p0i8.i64(i8* nocapture, i8* nocapture readonly, i64, i32, i1) #6

; Function Attrs: uwtable
define zeroext i1 @_ZN4Json6Reader5parseERKSsRNS_5ValueEb(%"class.Json::Reader"* %this, %"class.std::basic_string"* dereferenceable(8) %document, %"class.Json::Value"* dereferenceable(40) %root, i1 zeroext %collectComments) #2 align 2 !dbg !2847 {
entry:
  %this.addr = alloca %"class.Json::Reader"*, align 8
  %document.addr = alloca %"class.std::basic_string"*, align 8
  %root.addr = alloca %"class.Json::Value"*, align 8
  %collectComments.addr = alloca i8, align 1
  %begin = alloca i8*, align 8
  %end = alloca i8*, align 8
  store %"class.Json::Reader"* %this, %"class.Json::Reader"** %this.addr, align 8
  call void @llvm.dbg.declare(metadata %"class.Json::Reader"** %this.addr, metadata !3992, metadata !3818), !dbg !3993
  store %"class.std::basic_string"* %document, %"class.std::basic_string"** %document.addr, align 8
  call void @llvm.dbg.declare(metadata %"class.std::basic_string"** %document.addr, metadata !3994, metadata !3818), !dbg !3995
  store %"class.Json::Value"* %root, %"class.Json::Value"** %root.addr, align 8
  call void @llvm.dbg.declare(metadata %"class.Json::Value"** %root.addr, metadata !3996, metadata !3818), !dbg !3997
  %frombool = zext i1 %collectComments to i8
  store i8 %frombool, i8* %collectComments.addr, align 1
  call void @llvm.dbg.declare(metadata i8* %collectComments.addr, metadata !3998, metadata !3818), !dbg !3999
  %this1 = load %"class.Json::Reader"*, %"class.Json::Reader"** %this.addr, align 8
  %document_ = getelementptr inbounds %"class.Json::Reader", %"class.Json::Reader"* %this1, i32 0, i32 2, !dbg !4000
  %0 = load %"class.std::basic_string"*, %"class.std::basic_string"** %document.addr, align 8, !dbg !4001
  %call = call dereferenceable(8) %"class.std::basic_string"* @_ZNSsaSERKSs(%"class.std::basic_string"* %document_, %"class.std::basic_string"* dereferenceable(8) %0), !dbg !4002
  call void @llvm.dbg.declare(metadata i8** %begin, metadata !4003, metadata !3818), !dbg !4004
  %document_2 = getelementptr inbounds %"class.Json::Reader", %"class.Json::Reader"* %this1, i32 0, i32 2, !dbg !4005
  %call3 = call i8* @_ZNKSs5c_strEv(%"class.std::basic_string"* %document_2), !dbg !4005
  store i8* %call3, i8** %begin, align 8, !dbg !4004
  call void @llvm.dbg.declare(metadata i8** %end, metadata !4006, metadata !3818), !dbg !4007
  %1 = load i8*, i8** %begin, align 8, !dbg !4008
  %document_4 = getelementptr inbounds %"class.Json::Reader", %"class.Json::Reader"* %this1, i32 0, i32 2, !dbg !4009
  %call5 = call i64 @_ZNKSs6lengthEv(%"class.std::basic_string"* %document_4), !dbg !4009
  %add.ptr = getelementptr inbounds i8, i8* %1, i64 %call5, !dbg !4010
  store i8* %add.ptr, i8** %end, align 8, !dbg !4007
  %2 = load i8*, i8** %begin, align 8, !dbg !4011
  %3 = load i8*, i8** %end, align 8, !dbg !4012
  %4 = load %"class.Json::Value"*, %"class.Json::Value"** %root.addr, align 8, !dbg !4013
  %5 = load i8, i8* %collectComments.addr, align 1, !dbg !4014
  %tobool = trunc i8 %5 to i1, !dbg !4014
  %call6 = call zeroext i1 @_ZN4Json6Reader5parseEPKcS2_RNS_5ValueEb(%"class.Json::Reader"* %this1, i8* %2, i8* %3, %"class.Json::Value"* dereferenceable(40) %4, i1 zeroext %tobool), !dbg !4015
  ret i1 %call6, !dbg !4016
}

declare dereferenceable(8) %"class.std::basic_string"* @_ZNSsaSERKSs(%"class.std::basic_string"*, %"class.std::basic_string"* dereferenceable(8)) #4

declare i8* @_ZNKSs5c_strEv(%"class.std::basic_string"*) #4

declare i64 @_ZNKSs6lengthEv(%"class.std::basic_string"*) #4

; Function Attrs: uwtable
define zeroext i1 @_ZN4Json6Reader5parseEPKcS2_RNS_5ValueEb(%"class.Json::Reader"* %this, i8* %beginDoc, i8* %endDoc, %"class.Json::Value"* dereferenceable(40) %root, i1 zeroext %collectComments) #2 align 2 personality i8* bitcast (i32 (...)* @__gxx_personality_v0 to i8*) !dbg !2849 {
entry:
  %retval = alloca i1, align 1
  %this.addr = alloca %"class.Json::Reader"*, align 8
  %beginDoc.addr = alloca i8*, align 8
  %endDoc.addr = alloca i8*, align 8
  %root.addr = alloca %"class.Json::Value"*, align 8
  %collectComments.addr = alloca i8, align 1
  %ref.tmp = alloca %"class.Json::Value"*, align 8
  %successful = alloca i8, align 1
  %token = alloca %"class.Json::Reader::Token", align 8
  %ref.tmp25 = alloca %"class.std::basic_string", align 8
  %ref.tmp26 = alloca %"class.std::allocator.8", align 1
  %exn.slot = alloca i8*
  %ehselector.slot = alloca i32
  store %"class.Json::Reader"* %this, %"class.Json::Reader"** %this.addr, align 8
  call void @llvm.dbg.declare(metadata %"class.Json::Reader"** %this.addr, metadata !4017, metadata !3818), !dbg !4018
  store i8* %beginDoc, i8** %beginDoc.addr, align 8
  call void @llvm.dbg.declare(metadata i8** %beginDoc.addr, metadata !4019, metadata !3818), !dbg !4020
  store i8* %endDoc, i8** %endDoc.addr, align 8
  call void @llvm.dbg.declare(metadata i8** %endDoc.addr, metadata !4021, metadata !3818), !dbg !4022
  store %"class.Json::Value"* %root, %"class.Json::Value"** %root.addr, align 8
  call void @llvm.dbg.declare(metadata %"class.Json::Value"** %root.addr, metadata !4023, metadata !3818), !dbg !4024
  %frombool = zext i1 %collectComments to i8
  store i8 %frombool, i8* %collectComments.addr, align 1
  call void @llvm.dbg.declare(metadata i8* %collectComments.addr, metadata !4025, metadata !3818), !dbg !4026
  %this1 = load %"class.Json::Reader"*, %"class.Json::Reader"** %this.addr, align 8
  %features_ = getelementptr inbounds %"class.Json::Reader", %"class.Json::Reader"* %this1, i32 0, i32 9, !dbg !4027
  %allowComments_ = getelementptr inbounds %"class.Json::Features", %"class.Json::Features"* %features_, i32 0, i32 0, !dbg !4029
  %0 = load i8, i8* %allowComments_, align 8, !dbg !4029
  %tobool = trunc i8 %0 to i1, !dbg !4029
  br i1 %tobool, label %if.end, label %if.then, !dbg !4030

if.then:                                          ; preds = %entry
  store i8 0, i8* %collectComments.addr, align 1, !dbg !4031
  br label %if.end, !dbg !4033

if.end:                                           ; preds = %if.then, %entry
  %1 = load i8*, i8** %beginDoc.addr, align 8, !dbg !4034
  %begin_ = getelementptr inbounds %"class.Json::Reader", %"class.Json::Reader"* %this1, i32 0, i32 3, !dbg !4035
  store i8* %1, i8** %begin_, align 8, !dbg !4036
  %2 = load i8*, i8** %endDoc.addr, align 8, !dbg !4037
  %end_ = getelementptr inbounds %"class.Json::Reader", %"class.Json::Reader"* %this1, i32 0, i32 4, !dbg !4038
  store i8* %2, i8** %end_, align 8, !dbg !4039
  %3 = load i8, i8* %collectComments.addr, align 1, !dbg !4040
  %tobool2 = trunc i8 %3 to i1, !dbg !4040
  %collectComments_ = getelementptr inbounds %"class.Json::Reader", %"class.Json::Reader"* %this1, i32 0, i32 10, !dbg !4041
  %frombool3 = zext i1 %tobool2 to i8, !dbg !4042
  store i8 %frombool3, i8* %collectComments_, align 4, !dbg !4042
  %begin_4 = getelementptr inbounds %"class.Json::Reader", %"class.Json::Reader"* %this1, i32 0, i32 3, !dbg !4043
  %4 = load i8*, i8** %begin_4, align 8, !dbg !4043
  %current_ = getelementptr inbounds %"class.Json::Reader", %"class.Json::Reader"* %this1, i32 0, i32 5, !dbg !4044
  store i8* %4, i8** %current_, align 8, !dbg !4045
  %lastValueEnd_ = getelementptr inbounds %"class.Json::Reader", %"class.Json::Reader"* %this1, i32 0, i32 6, !dbg !4046
  store i8* null, i8** %lastValueEnd_, align 8, !dbg !4047
  %lastValue_ = getelementptr inbounds %"class.Json::Reader", %"class.Json::Reader"* %this1, i32 0, i32 7, !dbg !4048
  store %"class.Json::Value"* null, %"class.Json::Value"** %lastValue_, align 8, !dbg !4049
  %commentsBefore_ = getelementptr inbounds %"class.Json::Reader", %"class.Json::Reader"* %this1, i32 0, i32 8, !dbg !4050
  %call = call dereferenceable(8) %"class.std::basic_string"* @_ZNSsaSEPKc(%"class.std::basic_string"* %commentsBefore_, i8* getelementptr inbounds ([1 x i8], [1 x i8]* @.str, i32 0, i32 0)), !dbg !4051
  %errors_ = getelementptr inbounds %"class.Json::Reader", %"class.Json::Reader"* %this1, i32 0, i32 1, !dbg !4052
  call void @_ZNSt5dequeIN4Json6Reader9ErrorInfoESaIS2_EE5clearEv(%"class.std::deque.3"* %errors_), !dbg !4052
  br label %while.cond, !dbg !4053

while.cond:                                       ; preds = %while.body, %if.end
  %nodes_ = getelementptr inbounds %"class.Json::Reader", %"class.Json::Reader"* %this1, i32 0, i32 0, !dbg !4054
  %call5 = call zeroext i1 @_ZNKSt5stackIPN4Json5ValueESt5dequeIS2_SaIS2_EEE5emptyEv(%"class.std::stack"* %nodes_), !dbg !4054
  %lnot = xor i1 %call5, true, !dbg !4056
  br i1 %lnot, label %while.body, label %while.end, !dbg !4057

while.body:                                       ; preds = %while.cond
  %nodes_6 = getelementptr inbounds %"class.Json::Reader", %"class.Json::Reader"* %this1, i32 0, i32 0, !dbg !4058
  call void @_ZNSt5stackIPN4Json5ValueESt5dequeIS2_SaIS2_EEE3popEv(%"class.std::stack"* %nodes_6), !dbg !4058
  br label %while.cond, !dbg !4059

while.end:                                        ; preds = %while.cond
  %nodes_7 = getelementptr inbounds %"class.Json::Reader", %"class.Json::Reader"* %this1, i32 0, i32 0, !dbg !4061
  %5 = load %"class.Json::Value"*, %"class.Json::Value"** %root.addr, align 8, !dbg !4062
  store %"class.Json::Value"* %5, %"class.Json::Value"** %ref.tmp, align 8, !dbg !4063
  call void @_ZNSt5stackIPN4Json5ValueESt5dequeIS2_SaIS2_EEE4pushERKS2_(%"class.std::stack"* %nodes_7, %"class.Json::Value"** dereferenceable(8) %ref.tmp), !dbg !4061
  call void @llvm.dbg.declare(metadata i8* %successful, metadata !4064, metadata !3818), !dbg !4065
  %call8 = call zeroext i1 @_ZN4Json6Reader9readValueEv(%"class.Json::Reader"* %this1), !dbg !4066
  %frombool9 = zext i1 %call8 to i8, !dbg !4065
  store i8 %frombool9, i8* %successful, align 1, !dbg !4065
  call void @llvm.dbg.declare(metadata %"class.Json::Reader::Token"* %token, metadata !4067, metadata !3818), !dbg !4068
  call void @_ZN4Json6Reader17skipCommentTokensERNS0_5TokenE(%"class.Json::Reader"* %this1, %"class.Json::Reader::Token"* dereferenceable(24) %token), !dbg !4069
  %collectComments_10 = getelementptr inbounds %"class.Json::Reader", %"class.Json::Reader"* %this1, i32 0, i32 10, !dbg !4070
  %6 = load i8, i8* %collectComments_10, align 4, !dbg !4070
  %tobool11 = trunc i8 %6 to i1, !dbg !4070
  br i1 %tobool11, label %land.lhs.true, label %if.end16, !dbg !4072

land.lhs.true:                                    ; preds = %while.end
  %commentsBefore_12 = getelementptr inbounds %"class.Json::Reader", %"class.Json::Reader"* %this1, i32 0, i32 8, !dbg !4073
  %call13 = call zeroext i1 @_ZNKSs5emptyEv(%"class.std::basic_string"* %commentsBefore_12), !dbg !4073
  br i1 %call13, label %if.end16, label %if.then14, !dbg !4075

if.then14:                                        ; preds = %land.lhs.true
  %7 = load %"class.Json::Value"*, %"class.Json::Value"** %root.addr, align 8, !dbg !4076
  %commentsBefore_15 = getelementptr inbounds %"class.Json::Reader", %"class.Json::Reader"* %this1, i32 0, i32 8, !dbg !4077
  call void @_ZN4Json5Value10setCommentERKSsNS_16CommentPlacementE(%"class.Json::Value"* %7, %"class.std::basic_string"* dereferenceable(8) %commentsBefore_15, i32 2), !dbg !4076
  br label %if.end16, !dbg !4076

if.end16:                                         ; preds = %if.then14, %land.lhs.true, %while.end
  %features_17 = getelementptr inbounds %"class.Json::Reader", %"class.Json::Reader"* %this1, i32 0, i32 9, !dbg !4078
  %strictRoot_ = getelementptr inbounds %"class.Json::Features", %"class.Json::Features"* %features_17, i32 0, i32 1, !dbg !4080
  %8 = load i8, i8* %strictRoot_, align 1, !dbg !4080
  %tobool18 = trunc i8 %8 to i1, !dbg !4080
  br i1 %tobool18, label %if.then19, label %if.end33, !dbg !4081

if.then19:                                        ; preds = %if.end16
  %9 = load %"class.Json::Value"*, %"class.Json::Value"** %root.addr, align 8, !dbg !4082
  %call20 = call zeroext i1 @_ZNK4Json5Value7isArrayEv(%"class.Json::Value"* %9), !dbg !4082
  br i1 %call20, label %if.end32, label %land.lhs.true21, !dbg !4085

land.lhs.true21:                                  ; preds = %if.then19
  %10 = load %"class.Json::Value"*, %"class.Json::Value"** %root.addr, align 8, !dbg !4086
  %call22 = call zeroext i1 @_ZNK4Json5Value8isObjectEv(%"class.Json::Value"* %10), !dbg !4086
  br i1 %call22, label %if.end32, label %if.then23, !dbg !4088

if.then23:                                        ; preds = %land.lhs.true21
  %type_ = getelementptr inbounds %"class.Json::Reader::Token", %"class.Json::Reader::Token"* %token, i32 0, i32 0, !dbg !4089
  store i32 13, i32* %type_, align 8, !dbg !4091
  %11 = load i8*, i8** %beginDoc.addr, align 8, !dbg !4092
  %start_ = getelementptr inbounds %"class.Json::Reader::Token", %"class.Json::Reader::Token"* %token, i32 0, i32 1, !dbg !4093
  store i8* %11, i8** %start_, align 8, !dbg !4094
  %12 = load i8*, i8** %endDoc.addr, align 8, !dbg !4095
  %end_24 = getelementptr inbounds %"class.Json::Reader::Token", %"class.Json::Reader::Token"* %token, i32 0, i32 2, !dbg !4096
  store i8* %12, i8** %end_24, align 8, !dbg !4097
  call void @_ZNSaIcEC1Ev(%"class.std::allocator.8"* %ref.tmp26) #14, !dbg !4098
  invoke void @_ZNSsC1EPKcRKSaIcE(%"class.std::basic_string"* %ref.tmp25, i8* getelementptr inbounds ([66 x i8], [66 x i8]* @.str.1, i32 0, i32 0), %"class.std::allocator.8"* dereferenceable(1) %ref.tmp26)
          to label %invoke.cont unwind label %lpad, !dbg !4098

invoke.cont:                                      ; preds = %if.then23
  %call29 = invoke zeroext i1 @_ZN4Json6Reader8addErrorERKSsRNS0_5TokenEPKc(%"class.Json::Reader"* %this1, %"class.std::basic_string"* dereferenceable(8) %ref.tmp25, %"class.Json::Reader::Token"* dereferenceable(24) %token, i8* null)
          to label %invoke.cont28 unwind label %lpad27, !dbg !4099

invoke.cont28:                                    ; preds = %invoke.cont
  invoke void @_ZNSsD1Ev(%"class.std::basic_string"* %ref.tmp25)
          to label %invoke.cont30 unwind label %lpad, !dbg !4100

invoke.cont30:                                    ; preds = %invoke.cont28
  call void @_ZNSaIcED1Ev(%"class.std::allocator.8"* %ref.tmp26) #14, !dbg !4102
  store i1 false, i1* %retval, align 1, !dbg !4104
  br label %return, !dbg !4104

lpad:                                             ; preds = %invoke.cont28, %if.then23
  %13 = landingpad { i8*, i32 }
          cleanup, !dbg !4105
  %14 = extractvalue { i8*, i32 } %13, 0, !dbg !4105
  store i8* %14, i8** %exn.slot, align 8, !dbg !4105
  %15 = extractvalue { i8*, i32 } %13, 1, !dbg !4105
  store i32 %15, i32* %ehselector.slot, align 4, !dbg !4105
  br label %ehcleanup, !dbg !4105

lpad27:                                           ; preds = %invoke.cont
  %16 = landingpad { i8*, i32 }
          cleanup, !dbg !4106
  %17 = extractvalue { i8*, i32 } %16, 0, !dbg !4106
  store i8* %17, i8** %exn.slot, align 8, !dbg !4106
  %18 = extractvalue { i8*, i32 } %16, 1, !dbg !4106
  store i32 %18, i32* %ehselector.slot, align 4, !dbg !4106
  invoke void @_ZNSsD1Ev(%"class.std::basic_string"* %ref.tmp25)
          to label %invoke.cont31 unwind label %terminate.lpad, !dbg !4107

invoke.cont31:                                    ; preds = %lpad27
  br label %ehcleanup, !dbg !4109

ehcleanup:                                        ; preds = %invoke.cont31, %lpad
  call void @_ZNSaIcED1Ev(%"class.std::allocator.8"* %ref.tmp26) #14, !dbg !4111
  br label %eh.resume, !dbg !4111

if.end32:                                         ; preds = %land.lhs.true21, %if.then19
  br label %if.end33, !dbg !4113

if.end33:                                         ; preds = %if.end32, %if.end16
  %19 = load i8, i8* %successful, align 1, !dbg !4114
  %tobool34 = trunc i8 %19 to i1, !dbg !4114
  store i1 %tobool34, i1* %retval, align 1, !dbg !4115
  br label %return, !dbg !4115

return:                                           ; preds = %if.end33, %invoke.cont30
  %20 = load i1, i1* %retval, align 1, !dbg !4116
  ret i1 %20, !dbg !4116

eh.resume:                                        ; preds = %ehcleanup
  %exn = load i8*, i8** %exn.slot, align 8, !dbg !4117
  %sel = load i32, i32* %ehselector.slot, align 4, !dbg !4117
  %lpad.val = insertvalue { i8*, i32 } undef, i8* %exn, 0, !dbg !4117
  %lpad.val35 = insertvalue { i8*, i32 } %lpad.val, i32 %sel, 1, !dbg !4117
  resume { i8*, i32 } %lpad.val35, !dbg !4117

terminate.lpad:                                   ; preds = %lpad27
  %21 = landingpad { i8*, i32 }
          catch i8* null, !dbg !4119
  %22 = extractvalue { i8*, i32 } %21, 0, !dbg !4119
  call void @__clang_call_terminate(i8* %22) #13, !dbg !4119
  unreachable, !dbg !4119
}

; Function Attrs: uwtable
define zeroext i1 @_ZN4Json6Reader5parseERSiRNS_5ValueEb(%"class.Json::Reader"* %this, %"class.std::basic_istream"* dereferenceable(280) %sin, %"class.Json::Value"* dereferenceable(40) %root, i1 zeroext %collectComments) #2 align 2 personality i8* bitcast (i32 (...)* @__gxx_personality_v0 to i8*) !dbg !2848 {
entry:
  %this.addr = alloca %"class.Json::Reader"*, align 8
  %sin.addr = alloca %"class.std::basic_istream"*, align 8
  %root.addr = alloca %"class.Json::Value"*, align 8
  %collectComments.addr = alloca i8, align 1
  %doc = alloca %"class.std::basic_string", align 8
  %exn.slot = alloca i8*
  %ehselector.slot = alloca i32
  store %"class.Json::Reader"* %this, %"class.Json::Reader"** %this.addr, align 8
  call void @llvm.dbg.declare(metadata %"class.Json::Reader"** %this.addr, metadata !4121, metadata !3818), !dbg !4122
  store %"class.std::basic_istream"* %sin, %"class.std::basic_istream"** %sin.addr, align 8
  call void @llvm.dbg.declare(metadata %"class.std::basic_istream"** %sin.addr, metadata !4123, metadata !3818), !dbg !4124
  store %"class.Json::Value"* %root, %"class.Json::Value"** %root.addr, align 8
  call void @llvm.dbg.declare(metadata %"class.Json::Value"** %root.addr, metadata !4125, metadata !3818), !dbg !4126
  %frombool = zext i1 %collectComments to i8
  store i8 %frombool, i8* %collectComments.addr, align 1
  call void @llvm.dbg.declare(metadata i8* %collectComments.addr, metadata !4127, metadata !3818), !dbg !4128
  %this1 = load %"class.Json::Reader"*, %"class.Json::Reader"** %this.addr, align 8
  call void @llvm.dbg.declare(metadata %"class.std::basic_string"* %doc, metadata !4129, metadata !3818), !dbg !4130
  call void @_ZNSsC1Ev(%"class.std::basic_string"* %doc), !dbg !4130
  %0 = load %"class.std::basic_istream"*, %"class.std::basic_istream"** %sin.addr, align 8, !dbg !4131
  %call = invoke dereferenceable(280) %"class.std::basic_istream"* @_ZSt7getlineIcSt11char_traitsIcESaIcEERSt13basic_istreamIT_T0_ES7_RSbIS4_S5_T1_ES4_(%"class.std::basic_istream"* dereferenceable(280) %0, %"class.std::basic_string"* dereferenceable(8) %doc, i8 signext -1)
          to label %invoke.cont unwind label %lpad, !dbg !4132

invoke.cont:                                      ; preds = %entry
  %1 = load %"class.Json::Value"*, %"class.Json::Value"** %root.addr, align 8, !dbg !4133
  %2 = load i8, i8* %collectComments.addr, align 1, !dbg !4134
  %tobool = trunc i8 %2 to i1, !dbg !4134
  %call3 = invoke zeroext i1 @_ZN4Json6Reader5parseERKSsRNS_5ValueEb(%"class.Json::Reader"* %this1, %"class.std::basic_string"* dereferenceable(8) %doc, %"class.Json::Value"* dereferenceable(40) %1, i1 zeroext %tobool)
          to label %invoke.cont2 unwind label %lpad, !dbg !4135

invoke.cont2:                                     ; preds = %invoke.cont
  call void @_ZNSsD1Ev(%"class.std::basic_string"* %doc), !dbg !4136
  ret i1 %call3, !dbg !4136

lpad:                                             ; preds = %invoke.cont, %entry
  %3 = landingpad { i8*, i32 }
          cleanup, !dbg !4137
  %4 = extractvalue { i8*, i32 } %3, 0, !dbg !4137
  store i8* %4, i8** %exn.slot, align 8, !dbg !4137
  %5 = extractvalue { i8*, i32 } %3, 1, !dbg !4137
  store i32 %5, i32* %ehselector.slot, align 4, !dbg !4137
  invoke void @_ZNSsD1Ev(%"class.std::basic_string"* %doc)
          to label %invoke.cont4 unwind label %terminate.lpad, !dbg !4137

invoke.cont4:                                     ; preds = %lpad
  br label %eh.resume, !dbg !4139

eh.resume:                                        ; preds = %invoke.cont4
  %exn = load i8*, i8** %exn.slot, align 8, !dbg !4141
  %sel = load i32, i32* %ehselector.slot, align 4, !dbg !4141
  %lpad.val = insertvalue { i8*, i32 } undef, i8* %exn, 0, !dbg !4141
  %lpad.val5 = insertvalue { i8*, i32 } %lpad.val, i32 %sel, 1, !dbg !4141
  resume { i8*, i32 } %lpad.val5, !dbg !4141

terminate.lpad:                                   ; preds = %lpad
  %6 = landingpad { i8*, i32 }
          catch i8* null, !dbg !4143
  %7 = extractvalue { i8*, i32 } %6, 0, !dbg !4143
  call void @__clang_call_terminate(i8* %7) #13, !dbg !4143
  unreachable, !dbg !4143
}

declare dereferenceable(280) %"class.std::basic_istream"* @_ZSt7getlineIcSt11char_traitsIcESaIcEERSt13basic_istreamIT_T0_ES7_RSbIS4_S5_T1_ES4_(%"class.std::basic_istream"* dereferenceable(280), %"class.std::basic_string"* dereferenceable(8), i8 signext) #4

declare dereferenceable(8) %"class.std::basic_string"* @_ZNSsaSEPKc(%"class.std::basic_string"*, i8*) #4

; Function Attrs: uwtable
define linkonce_odr void @_ZNSt5dequeIN4Json6Reader9ErrorInfoESaIS2_EE5clearEv(%"class.std::deque.3"* %this) #2 comdat align 2 !dbg !3086 {
entry:
  %this.addr = alloca %"class.std::deque.3"*, align 8
  %agg.tmp = alloca %"struct.std::_Deque_iterator.11", align 8
  store %"class.std::deque.3"* %this, %"class.std::deque.3"** %this.addr, align 8
  call void @llvm.dbg.declare(metadata %"class.std::deque.3"** %this.addr, metadata !4145, metadata !3818), !dbg !4146
  %this1 = load %"class.std::deque.3"*, %"class.std::deque.3"** %this.addr, align 8
  call void @_ZNSt5dequeIN4Json6Reader9ErrorInfoESaIS2_EE5beginEv(%"struct.std::_Deque_iterator.11"* sret %agg.tmp, %"class.std::deque.3"* %this1), !dbg !4147
  call void @_ZNSt5dequeIN4Json6Reader9ErrorInfoESaIS2_EE15_M_erase_at_endESt15_Deque_iteratorIS2_RS2_PS2_E(%"class.std::deque.3"* %this1, %"struct.std::_Deque_iterator.11"* %agg.tmp), !dbg !4148
  ret void, !dbg !4150
}

; Function Attrs: uwtable
define linkonce_odr zeroext i1 @_ZNKSt5stackIPN4Json5ValueESt5dequeIS2_SaIS2_EEE5emptyEv(%"class.std::stack"* %this) #2 comdat align 2 !dbg !3088 {
entry:
  %this.addr = alloca %"class.std::stack"*, align 8
  store %"class.std::stack"* %this, %"class.std::stack"** %this.addr, align 8
  call void @llvm.dbg.declare(metadata %"class.std::stack"** %this.addr, metadata !4151, metadata !3818), !dbg !4153
  %this1 = load %"class.std::stack"*, %"class.std::stack"** %this.addr, align 8
  %c = getelementptr inbounds %"class.std::stack", %"class.std::stack"* %this1, i32 0, i32 0, !dbg !4154
  %call = call zeroext i1 @_ZNKSt5dequeIPN4Json5ValueESaIS2_EE5emptyEv(%"class.std::deque"* %c), !dbg !4154
  ret i1 %call, !dbg !4155
}

; Function Attrs: uwtable
define linkonce_odr void @_ZNSt5stackIPN4Json5ValueESt5dequeIS2_SaIS2_EEE3popEv(%"class.std::stack"* %this) #2 comdat align 2 !dbg !3093 {
entry:
  %this.addr = alloca %"class.std::stack"*, align 8
  store %"class.std::stack"* %this, %"class.std::stack"** %this.addr, align 8
  call void @llvm.dbg.declare(metadata %"class.std::stack"** %this.addr, metadata !4156, metadata !3818), !dbg !4157
  %this1 = load %"class.std::stack"*, %"class.std::stack"** %this.addr, align 8
  %c = getelementptr inbounds %"class.std::stack", %"class.std::stack"* %this1, i32 0, i32 0, !dbg !4158
  call void @_ZNSt5dequeIPN4Json5ValueESaIS2_EE8pop_backEv(%"class.std::deque"* %c), !dbg !4158
  ret void, !dbg !4159
}

; Function Attrs: uwtable
define linkonce_odr void @_ZNSt5stackIPN4Json5ValueESt5dequeIS2_SaIS2_EEE4pushERKS2_(%"class.std::stack"* %this, %"class.Json::Value"** dereferenceable(8) %__x) #2 comdat align 2 !dbg !3097 {
entry:
  %this.addr = alloca %"class.std::stack"*, align 8
  %__x.addr = alloca %"class.Json::Value"**, align 8
  store %"class.std::stack"* %this, %"class.std::stack"** %this.addr, align 8
  call void @llvm.dbg.declare(metadata %"class.std::stack"** %this.addr, metadata !4160, metadata !3818), !dbg !4161
  store %"class.Json::Value"** %__x, %"class.Json::Value"*** %__x.addr, align 8
  call void @llvm.dbg.declare(metadata %"class.Json::Value"*** %__x.addr, metadata !4162, metadata !3818), !dbg !4163
  %this1 = load %"class.std::stack"*, %"class.std::stack"** %this.addr, align 8
  %c = getelementptr inbounds %"class.std::stack", %"class.std::stack"* %this1, i32 0, i32 0, !dbg !4164
  %0 = load %"class.Json::Value"**, %"class.Json::Value"*** %__x.addr, align 8, !dbg !4165
  call void @_ZNSt5dequeIPN4Json5ValueESaIS2_EE9push_backERKS2_(%"class.std::deque"* %c, %"class.Json::Value"** dereferenceable(8) %0), !dbg !4164
  ret void, !dbg !4166
}

; Function Attrs: uwtable
define zeroext i1 @_ZN4Json6Reader9readValueEv(%"class.Json::Reader"* %this) #2 align 2 personality i8* bitcast (i32 (...)* @__gxx_personality_v0 to i8*) !dbg !2850 {
entry:
  %retval = alloca i1, align 1
  %this.addr = alloca %"class.Json::Reader"*, align 8
  %token = alloca %"class.Json::Reader::Token", align 8
  %successful = alloca i8, align 1
  %lastNonNewline = alloca i64, align 8
  %agg.tmp = alloca %"class.Json::Value", align 8
  %exn.slot = alloca i8*
  %ehselector.slot = alloca i32
  %agg.tmp46 = alloca %"class.Json::Value", align 8
  %agg.tmp65 = alloca %"class.Json::Value", align 8
  %agg.tmp87 = alloca %"class.Json::Value", align 8
  %ref.tmp = alloca %"class.std::basic_string", align 8
  %ref.tmp117 = alloca %"class.std::allocator.8", align 1
  store %"class.Json::Reader"* %this, %"class.Json::Reader"** %this.addr, align 8
  call void @llvm.dbg.declare(metadata %"class.Json::Reader"** %this.addr, metadata !4167, metadata !3818), !dbg !4168
  %this1 = load %"class.Json::Reader"*, %"class.Json::Reader"** %this.addr, align 8
  call void @llvm.dbg.declare(metadata %"class.Json::Reader::Token"* %token, metadata !4169, metadata !3818), !dbg !4170
  call void @_ZN4Json6Reader17skipCommentTokensERNS0_5TokenE(%"class.Json::Reader"* %this1, %"class.Json::Reader::Token"* dereferenceable(24) %token), !dbg !4171
  call void @llvm.dbg.declare(metadata i8* %successful, metadata !4172, metadata !3818), !dbg !4173
  store i8 1, i8* %successful, align 1, !dbg !4173
  %collectComments_ = getelementptr inbounds %"class.Json::Reader", %"class.Json::Reader"* %this1, i32 0, i32 10, !dbg !4174
  %0 = load i8, i8* %collectComments_, align 4, !dbg !4174
  %tobool = trunc i8 %0 to i1, !dbg !4174
  br i1 %tobool, label %land.lhs.true, label %if.end12, !dbg !4176

land.lhs.true:                                    ; preds = %entry
  %commentsBefore_ = getelementptr inbounds %"class.Json::Reader", %"class.Json::Reader"* %this1, i32 0, i32 8, !dbg !4177
  %call = call zeroext i1 @_ZNKSs5emptyEv(%"class.std::basic_string"* %commentsBefore_), !dbg !4177
  br i1 %call, label %if.end12, label %if.then, !dbg !4179

if.then:                                          ; preds = %land.lhs.true
  call void @llvm.dbg.declare(metadata i64* %lastNonNewline, metadata !4180, metadata !3818), !dbg !4182
  %commentsBefore_2 = getelementptr inbounds %"class.Json::Reader", %"class.Json::Reader"* %this1, i32 0, i32 8, !dbg !4183
  %call3 = call i64 @_ZNKSs16find_last_not_ofEPKcm(%"class.std::basic_string"* %commentsBefore_2, i8* getelementptr inbounds ([3 x i8], [3 x i8]* @.str.2, i32 0, i32 0), i64 -1), !dbg !4183
  store i64 %call3, i64* %lastNonNewline, align 8, !dbg !4182
  %1 = load i64, i64* %lastNonNewline, align 8, !dbg !4184
  %cmp = icmp ne i64 %1, -1, !dbg !4186
  br i1 %cmp, label %if.then4, label %if.else, !dbg !4187

if.then4:                                         ; preds = %if.then
  %commentsBefore_5 = getelementptr inbounds %"class.Json::Reader", %"class.Json::Reader"* %this1, i32 0, i32 8, !dbg !4188
  %2 = load i64, i64* %lastNonNewline, align 8, !dbg !4190
  %add = add i64 %2, 1, !dbg !4191
  %call6 = call dereferenceable(8) %"class.std::basic_string"* @_ZNSs5eraseEmm(%"class.std::basic_string"* %commentsBefore_5, i64 %add, i64 -1), !dbg !4188
  br label %if.end, !dbg !4192

if.else:                                          ; preds = %if.then
  %commentsBefore_7 = getelementptr inbounds %"class.Json::Reader", %"class.Json::Reader"* %this1, i32 0, i32 8, !dbg !4193
  call void @_ZNSs5clearEv(%"class.std::basic_string"* %commentsBefore_7), !dbg !4193
  br label %if.end

if.end:                                           ; preds = %if.else, %if.then4
  %call8 = call dereferenceable(40) %"class.Json::Value"* @_ZN4Json6Reader12currentValueEv(%"class.Json::Reader"* %this1), !dbg !4195
  %commentsBefore_9 = getelementptr inbounds %"class.Json::Reader", %"class.Json::Reader"* %this1, i32 0, i32 8, !dbg !4196
  call void @_ZN4Json5Value10setCommentERKSsNS_16CommentPlacementE(%"class.Json::Value"* %call8, %"class.std::basic_string"* dereferenceable(8) %commentsBefore_9, i32 0), !dbg !4197
  %commentsBefore_10 = getelementptr inbounds %"class.Json::Reader", %"class.Json::Reader"* %this1, i32 0, i32 8, !dbg !4199
  %call11 = call dereferenceable(8) %"class.std::basic_string"* @_ZNSsaSEPKc(%"class.std::basic_string"* %commentsBefore_10, i8* getelementptr inbounds ([1 x i8], [1 x i8]* @.str, i32 0, i32 0)), !dbg !4200
  br label %if.end12, !dbg !4201

if.end12:                                         ; preds = %if.end, %land.lhs.true, %entry
  %type_ = getelementptr inbounds %"class.Json::Reader::Token", %"class.Json::Reader::Token"* %token, i32 0, i32 0, !dbg !4202
  %3 = load i32, i32* %type_, align 8, !dbg !4202
  switch i32 %3, label %sw.default [
    i32 1, label %sw.bb
    i32 3, label %sw.bb15
    i32 6, label %sw.bb24
    i32 5, label %sw.bb27
    i32 7, label %sw.bb30
    i32 8, label %sw.bb44
    i32 9, label %sw.bb63
    i32 10, label %sw.bb82
  ], !dbg !4203

sw.bb:                                            ; preds = %if.end12
  %call13 = call zeroext i1 @_ZN4Json6Reader10readObjectERNS0_5TokenE(%"class.Json::Reader"* %this1, %"class.Json::Reader::Token"* dereferenceable(24) %token), !dbg !4204
  %frombool = zext i1 %call13 to i8, !dbg !4206
  store i8 %frombool, i8* %successful, align 1, !dbg !4206
  %call14 = call dereferenceable(40) %"class.Json::Value"* @_ZN4Json6Reader12currentValueEv(%"class.Json::Reader"* %this1), !dbg !4207
  %current_ = getelementptr inbounds %"class.Json::Reader", %"class.Json::Reader"* %this1, i32 0, i32 5, !dbg !4208
  %4 = load i8*, i8** %current_, align 8, !dbg !4208
  %begin_ = getelementptr inbounds %"class.Json::Reader", %"class.Json::Reader"* %this1, i32 0, i32 3, !dbg !4209
  %5 = load i8*, i8** %begin_, align 8, !dbg !4209
  %sub.ptr.lhs.cast = ptrtoint i8* %4 to i64, !dbg !4210
  %sub.ptr.rhs.cast = ptrtoint i8* %5 to i64, !dbg !4210
  %sub.ptr.sub = sub i64 %sub.ptr.lhs.cast, %sub.ptr.rhs.cast, !dbg !4210
  call void @_ZN4Json5Value14setOffsetLimitEm(%"class.Json::Value"* %call14, i64 %sub.ptr.sub), !dbg !4211
  br label %sw.epilog, !dbg !4213

sw.bb15:                                          ; preds = %if.end12
  %call16 = call zeroext i1 @_ZN4Json6Reader9readArrayERNS0_5TokenE(%"class.Json::Reader"* %this1, %"class.Json::Reader::Token"* dereferenceable(24) %token), !dbg !4214
  %frombool17 = zext i1 %call16 to i8, !dbg !4215
  store i8 %frombool17, i8* %successful, align 1, !dbg !4215
  %call18 = call dereferenceable(40) %"class.Json::Value"* @_ZN4Json6Reader12currentValueEv(%"class.Json::Reader"* %this1), !dbg !4216
  %current_19 = getelementptr inbounds %"class.Json::Reader", %"class.Json::Reader"* %this1, i32 0, i32 5, !dbg !4217
  %6 = load i8*, i8** %current_19, align 8, !dbg !4217
  %begin_20 = getelementptr inbounds %"class.Json::Reader", %"class.Json::Reader"* %this1, i32 0, i32 3, !dbg !4218
  %7 = load i8*, i8** %begin_20, align 8, !dbg !4218
  %sub.ptr.lhs.cast21 = ptrtoint i8* %6 to i64, !dbg !4219
  %sub.ptr.rhs.cast22 = ptrtoint i8* %7 to i64, !dbg !4219
  %sub.ptr.sub23 = sub i64 %sub.ptr.lhs.cast21, %sub.ptr.rhs.cast22, !dbg !4219
  call void @_ZN4Json5Value14setOffsetLimitEm(%"class.Json::Value"* %call18, i64 %sub.ptr.sub23), !dbg !4220
  br label %sw.epilog, !dbg !4221

sw.bb24:                                          ; preds = %if.end12
  %call25 = call zeroext i1 @_ZN4Json6Reader12decodeNumberERNS0_5TokenE(%"class.Json::Reader"* %this1, %"class.Json::Reader::Token"* dereferenceable(24) %token), !dbg !4222
  %frombool26 = zext i1 %call25 to i8, !dbg !4223
  store i8 %frombool26, i8* %successful, align 1, !dbg !4223
  br label %sw.epilog, !dbg !4224

sw.bb27:                                          ; preds = %if.end12
  %call28 = call zeroext i1 @_ZN4Json6Reader12decodeStringERNS0_5TokenE(%"class.Json::Reader"* %this1, %"class.Json::Reader::Token"* dereferenceable(24) %token), !dbg !4225
  %frombool29 = zext i1 %call28 to i8, !dbg !4226
  store i8 %frombool29, i8* %successful, align 1, !dbg !4226
  br label %sw.epilog, !dbg !4227

sw.bb30:                                          ; preds = %if.end12
  %call31 = call dereferenceable(40) %"class.Json::Value"* @_ZN4Json6Reader12currentValueEv(%"class.Json::Reader"* %this1), !dbg !4228
  call void @_ZN4Json5ValueC1Eb(%"class.Json::Value"* %agg.tmp, i1 zeroext true), !dbg !4229
  %call32 = invoke dereferenceable(40) %"class.Json::Value"* @_ZN4Json5ValueaSES0_(%"class.Json::Value"* %call31, %"class.Json::Value"* %agg.tmp)
          to label %invoke.cont unwind label %lpad, !dbg !4231

invoke.cont:                                      ; preds = %sw.bb30
  call void @_ZN4Json5ValueD1Ev(%"class.Json::Value"* %agg.tmp), !dbg !4232
  %call34 = call dereferenceable(40) %"class.Json::Value"* @_ZN4Json6Reader12currentValueEv(%"class.Json::Reader"* %this1), !dbg !4233
  %start_ = getelementptr inbounds %"class.Json::Reader::Token", %"class.Json::Reader::Token"* %token, i32 0, i32 1, !dbg !4234
  %8 = load i8*, i8** %start_, align 8, !dbg !4234
  %begin_35 = getelementptr inbounds %"class.Json::Reader", %"class.Json::Reader"* %this1, i32 0, i32 3, !dbg !4235
  %9 = load i8*, i8** %begin_35, align 8, !dbg !4235
  %sub.ptr.lhs.cast36 = ptrtoint i8* %8 to i64, !dbg !4236
  %sub.ptr.rhs.cast37 = ptrtoint i8* %9 to i64, !dbg !4236
  %sub.ptr.sub38 = sub i64 %sub.ptr.lhs.cast36, %sub.ptr.rhs.cast37, !dbg !4236
  call void @_ZN4Json5Value14setOffsetStartEm(%"class.Json::Value"* %call34, i64 %sub.ptr.sub38), !dbg !4237
  %call39 = call dereferenceable(40) %"class.Json::Value"* @_ZN4Json6Reader12currentValueEv(%"class.Json::Reader"* %this1), !dbg !4238
  %end_ = getelementptr inbounds %"class.Json::Reader::Token", %"class.Json::Reader::Token"* %token, i32 0, i32 2, !dbg !4239
  %10 = load i8*, i8** %end_, align 8, !dbg !4239
  %begin_40 = getelementptr inbounds %"class.Json::Reader", %"class.Json::Reader"* %this1, i32 0, i32 3, !dbg !4240
  %11 = load i8*, i8** %begin_40, align 8, !dbg !4240
  %sub.ptr.lhs.cast41 = ptrtoint i8* %10 to i64, !dbg !4241
  %sub.ptr.rhs.cast42 = ptrtoint i8* %11 to i64, !dbg !4241
  %sub.ptr.sub43 = sub i64 %sub.ptr.lhs.cast41, %sub.ptr.rhs.cast42, !dbg !4241
  call void @_ZN4Json5Value14setOffsetLimitEm(%"class.Json::Value"* %call39, i64 %sub.ptr.sub43), !dbg !4242
  br label %sw.epilog, !dbg !4243

lpad:                                             ; preds = %sw.bb30
  %12 = landingpad { i8*, i32 }
          cleanup, !dbg !4244
  %13 = extractvalue { i8*, i32 } %12, 0, !dbg !4244
  store i8* %13, i8** %exn.slot, align 8, !dbg !4244
  %14 = extractvalue { i8*, i32 } %12, 1, !dbg !4244
  store i32 %14, i32* %ehselector.slot, align 4, !dbg !4244
  invoke void @_ZN4Json5ValueD1Ev(%"class.Json::Value"* %agg.tmp)
          to label %invoke.cont33 unwind label %terminate.lpad, !dbg !4245

invoke.cont33:                                    ; preds = %lpad
  br label %eh.resume, !dbg !4247

sw.bb44:                                          ; preds = %if.end12
  %call45 = call dereferenceable(40) %"class.Json::Value"* @_ZN4Json6Reader12currentValueEv(%"class.Json::Reader"* %this1), !dbg !4249
  call void @_ZN4Json5ValueC1Eb(%"class.Json::Value"* %agg.tmp46, i1 zeroext false), !dbg !4250
  %call49 = invoke dereferenceable(40) %"class.Json::Value"* @_ZN4Json5ValueaSES0_(%"class.Json::Value"* %call45, %"class.Json::Value"* %agg.tmp46)
          to label %invoke.cont48 unwind label %lpad47, !dbg !4252

invoke.cont48:                                    ; preds = %sw.bb44
  call void @_ZN4Json5ValueD1Ev(%"class.Json::Value"* %agg.tmp46), !dbg !4253
  %call51 = call dereferenceable(40) %"class.Json::Value"* @_ZN4Json6Reader12currentValueEv(%"class.Json::Reader"* %this1), !dbg !4254
  %start_52 = getelementptr inbounds %"class.Json::Reader::Token", %"class.Json::Reader::Token"* %token, i32 0, i32 1, !dbg !4255
  %15 = load i8*, i8** %start_52, align 8, !dbg !4255
  %begin_53 = getelementptr inbounds %"class.Json::Reader", %"class.Json::Reader"* %this1, i32 0, i32 3, !dbg !4256
  %16 = load i8*, i8** %begin_53, align 8, !dbg !4256
  %sub.ptr.lhs.cast54 = ptrtoint i8* %15 to i64, !dbg !4257
  %sub.ptr.rhs.cast55 = ptrtoint i8* %16 to i64, !dbg !4257
  %sub.ptr.sub56 = sub i64 %sub.ptr.lhs.cast54, %sub.ptr.rhs.cast55, !dbg !4257
  call void @_ZN4Json5Value14setOffsetStartEm(%"class.Json::Value"* %call51, i64 %sub.ptr.sub56), !dbg !4258
  %call57 = call dereferenceable(40) %"class.Json::Value"* @_ZN4Json6Reader12currentValueEv(%"class.Json::Reader"* %this1), !dbg !4259
  %end_58 = getelementptr inbounds %"class.Json::Reader::Token", %"class.Json::Reader::Token"* %token, i32 0, i32 2, !dbg !4260
  %17 = load i8*, i8** %end_58, align 8, !dbg !4260
  %begin_59 = getelementptr inbounds %"class.Json::Reader", %"class.Json::Reader"* %this1, i32 0, i32 3, !dbg !4261
  %18 = load i8*, i8** %begin_59, align 8, !dbg !4261
  %sub.ptr.lhs.cast60 = ptrtoint i8* %17 to i64, !dbg !4262
  %sub.ptr.rhs.cast61 = ptrtoint i8* %18 to i64, !dbg !4262
  %sub.ptr.sub62 = sub i64 %sub.ptr.lhs.cast60, %sub.ptr.rhs.cast61, !dbg !4262
  call void @_ZN4Json5Value14setOffsetLimitEm(%"class.Json::Value"* %call57, i64 %sub.ptr.sub62), !dbg !4263
  br label %sw.epilog, !dbg !4264

lpad47:                                           ; preds = %sw.bb44
  %19 = landingpad { i8*, i32 }
          cleanup, !dbg !4265
  %20 = extractvalue { i8*, i32 } %19, 0, !dbg !4265
  store i8* %20, i8** %exn.slot, align 8, !dbg !4265
  %21 = extractvalue { i8*, i32 } %19, 1, !dbg !4265
  store i32 %21, i32* %ehselector.slot, align 4, !dbg !4265
  invoke void @_ZN4Json5ValueD1Ev(%"class.Json::Value"* %agg.tmp46)
          to label %invoke.cont50 unwind label %terminate.lpad, !dbg !4266

invoke.cont50:                                    ; preds = %lpad47
  br label %eh.resume, !dbg !4267

sw.bb63:                                          ; preds = %if.end12
  %call64 = call dereferenceable(40) %"class.Json::Value"* @_ZN4Json6Reader12currentValueEv(%"class.Json::Reader"* %this1), !dbg !4268
  call void @_ZN4Json5ValueC1ENS_9ValueTypeE(%"class.Json::Value"* %agg.tmp65, i32 0), !dbg !4269
  %call68 = invoke dereferenceable(40) %"class.Json::Value"* @_ZN4Json5ValueaSES0_(%"class.Json::Value"* %call64, %"class.Json::Value"* %agg.tmp65)
          to label %invoke.cont67 unwind label %lpad66, !dbg !4270

invoke.cont67:                                    ; preds = %sw.bb63
  call void @_ZN4Json5ValueD1Ev(%"class.Json::Value"* %agg.tmp65), !dbg !4271
  %call70 = call dereferenceable(40) %"class.Json::Value"* @_ZN4Json6Reader12currentValueEv(%"class.Json::Reader"* %this1), !dbg !4272
  %start_71 = getelementptr inbounds %"class.Json::Reader::Token", %"class.Json::Reader::Token"* %token, i32 0, i32 1, !dbg !4273
  %22 = load i8*, i8** %start_71, align 8, !dbg !4273
  %begin_72 = getelementptr inbounds %"class.Json::Reader", %"class.Json::Reader"* %this1, i32 0, i32 3, !dbg !4274
  %23 = load i8*, i8** %begin_72, align 8, !dbg !4274
  %sub.ptr.lhs.cast73 = ptrtoint i8* %22 to i64, !dbg !4275
  %sub.ptr.rhs.cast74 = ptrtoint i8* %23 to i64, !dbg !4275
  %sub.ptr.sub75 = sub i64 %sub.ptr.lhs.cast73, %sub.ptr.rhs.cast74, !dbg !4275
  call void @_ZN4Json5Value14setOffsetStartEm(%"class.Json::Value"* %call70, i64 %sub.ptr.sub75), !dbg !4276
  %call76 = call dereferenceable(40) %"class.Json::Value"* @_ZN4Json6Reader12currentValueEv(%"class.Json::Reader"* %this1), !dbg !4277
  %end_77 = getelementptr inbounds %"class.Json::Reader::Token", %"class.Json::Reader::Token"* %token, i32 0, i32 2, !dbg !4278
  %24 = load i8*, i8** %end_77, align 8, !dbg !4278
  %begin_78 = getelementptr inbounds %"class.Json::Reader", %"class.Json::Reader"* %this1, i32 0, i32 3, !dbg !4279
  %25 = load i8*, i8** %begin_78, align 8, !dbg !4279
  %sub.ptr.lhs.cast79 = ptrtoint i8* %24 to i64, !dbg !4280
  %sub.ptr.rhs.cast80 = ptrtoint i8* %25 to i64, !dbg !4280
  %sub.ptr.sub81 = sub i64 %sub.ptr.lhs.cast79, %sub.ptr.rhs.cast80, !dbg !4280
  call void @_ZN4Json5Value14setOffsetLimitEm(%"class.Json::Value"* %call76, i64 %sub.ptr.sub81), !dbg !4281
  br label %sw.epilog, !dbg !4282

lpad66:                                           ; preds = %sw.bb63
  %26 = landingpad { i8*, i32 }
          cleanup, !dbg !4283
  %27 = extractvalue { i8*, i32 } %26, 0, !dbg !4283
  store i8* %27, i8** %exn.slot, align 8, !dbg !4283
  %28 = extractvalue { i8*, i32 } %26, 1, !dbg !4283
  store i32 %28, i32* %ehselector.slot, align 4, !dbg !4283
  invoke void @_ZN4Json5ValueD1Ev(%"class.Json::Value"* %agg.tmp65)
          to label %invoke.cont69 unwind label %terminate.lpad, !dbg !4284

invoke.cont69:                                    ; preds = %lpad66
  br label %eh.resume, !dbg !4285

sw.bb82:                                          ; preds = %if.end12
  %features_ = getelementptr inbounds %"class.Json::Reader", %"class.Json::Reader"* %this1, i32 0, i32 9, !dbg !4286
  %allowDroppedNullPlaceholders_ = getelementptr inbounds %"class.Json::Features", %"class.Json::Features"* %features_, i32 0, i32 2, !dbg !4288
  %29 = load i8, i8* %allowDroppedNullPlaceholders_, align 2, !dbg !4288
  %tobool83 = trunc i8 %29 to i1, !dbg !4288
  br i1 %tobool83, label %if.then84, label %if.end104, !dbg !4289

if.then84:                                        ; preds = %sw.bb82
  %current_85 = getelementptr inbounds %"class.Json::Reader", %"class.Json::Reader"* %this1, i32 0, i32 5, !dbg !4290
  %30 = load i8*, i8** %current_85, align 8, !dbg !4292
  %incdec.ptr = getelementptr inbounds i8, i8* %30, i32 -1, !dbg !4292
  store i8* %incdec.ptr, i8** %current_85, align 8, !dbg !4292
  %call86 = call dereferenceable(40) %"class.Json::Value"* @_ZN4Json6Reader12currentValueEv(%"class.Json::Reader"* %this1), !dbg !4293
  call void @_ZN4Json5ValueC1ENS_9ValueTypeE(%"class.Json::Value"* %agg.tmp87, i32 0), !dbg !4294
  %call90 = invoke dereferenceable(40) %"class.Json::Value"* @_ZN4Json5ValueaSES0_(%"class.Json::Value"* %call86, %"class.Json::Value"* %agg.tmp87)
          to label %invoke.cont89 unwind label %lpad88, !dbg !4296

invoke.cont89:                                    ; preds = %if.then84
  call void @_ZN4Json5ValueD1Ev(%"class.Json::Value"* %agg.tmp87), !dbg !4297
  %call92 = call dereferenceable(40) %"class.Json::Value"* @_ZN4Json6Reader12currentValueEv(%"class.Json::Reader"* %this1), !dbg !4299
  %current_93 = getelementptr inbounds %"class.Json::Reader", %"class.Json::Reader"* %this1, i32 0, i32 5, !dbg !4300
  %31 = load i8*, i8** %current_93, align 8, !dbg !4300
  %begin_94 = getelementptr inbounds %"class.Json::Reader", %"class.Json::Reader"* %this1, i32 0, i32 3, !dbg !4301
  %32 = load i8*, i8** %begin_94, align 8, !dbg !4301
  %sub.ptr.lhs.cast95 = ptrtoint i8* %31 to i64, !dbg !4302
  %sub.ptr.rhs.cast96 = ptrtoint i8* %32 to i64, !dbg !4302
  %sub.ptr.sub97 = sub i64 %sub.ptr.lhs.cast95, %sub.ptr.rhs.cast96, !dbg !4302
  %sub = sub nsw i64 %sub.ptr.sub97, 1, !dbg !4303
  call void @_ZN4Json5Value14setOffsetStartEm(%"class.Json::Value"* %call92, i64 %sub), !dbg !4304
  %call98 = call dereferenceable(40) %"class.Json::Value"* @_ZN4Json6Reader12currentValueEv(%"class.Json::Reader"* %this1), !dbg !4305
  %current_99 = getelementptr inbounds %"class.Json::Reader", %"class.Json::Reader"* %this1, i32 0, i32 5, !dbg !4306
  %33 = load i8*, i8** %current_99, align 8, !dbg !4306
  %begin_100 = getelementptr inbounds %"class.Json::Reader", %"class.Json::Reader"* %this1, i32 0, i32 3, !dbg !4307
  %34 = load i8*, i8** %begin_100, align 8, !dbg !4307
  %sub.ptr.lhs.cast101 = ptrtoint i8* %33 to i64, !dbg !4308
  %sub.ptr.rhs.cast102 = ptrtoint i8* %34 to i64, !dbg !4308
  %sub.ptr.sub103 = sub i64 %sub.ptr.lhs.cast101, %sub.ptr.rhs.cast102, !dbg !4308
  call void @_ZN4Json5Value14setOffsetLimitEm(%"class.Json::Value"* %call98, i64 %sub.ptr.sub103), !dbg !4309
  br label %sw.epilog, !dbg !4310

lpad88:                                           ; preds = %if.then84
  %35 = landingpad { i8*, i32 }
          cleanup, !dbg !4311
  %36 = extractvalue { i8*, i32 } %35, 0, !dbg !4311
  store i8* %36, i8** %exn.slot, align 8, !dbg !4311
  %37 = extractvalue { i8*, i32 } %35, 1, !dbg !4311
  store i32 %37, i32* %ehselector.slot, align 4, !dbg !4311
  invoke void @_ZN4Json5ValueD1Ev(%"class.Json::Value"* %agg.tmp87)
          to label %invoke.cont91 unwind label %terminate.lpad, !dbg !4313

invoke.cont91:                                    ; preds = %lpad88
  br label %eh.resume, !dbg !4315

if.end104:                                        ; preds = %sw.bb82
  br label %sw.default, !dbg !4316

sw.default:                                       ; preds = %if.end12, %if.end104
  %call105 = call dereferenceable(40) %"class.Json::Value"* @_ZN4Json6Reader12currentValueEv(%"class.Json::Reader"* %this1), !dbg !4318
  %start_106 = getelementptr inbounds %"class.Json::Reader::Token", %"class.Json::Reader::Token"* %token, i32 0, i32 1, !dbg !4319
  %38 = load i8*, i8** %start_106, align 8, !dbg !4319
  %begin_107 = getelementptr inbounds %"class.Json::Reader", %"class.Json::Reader"* %this1, i32 0, i32 3, !dbg !4320
  %39 = load i8*, i8** %begin_107, align 8, !dbg !4320
  %sub.ptr.lhs.cast108 = ptrtoint i8* %38 to i64, !dbg !4321
  %sub.ptr.rhs.cast109 = ptrtoint i8* %39 to i64, !dbg !4321
  %sub.ptr.sub110 = sub i64 %sub.ptr.lhs.cast108, %sub.ptr.rhs.cast109, !dbg !4321
  call void @_ZN4Json5Value14setOffsetStartEm(%"class.Json::Value"* %call105, i64 %sub.ptr.sub110), !dbg !4322
  %call111 = call dereferenceable(40) %"class.Json::Value"* @_ZN4Json6Reader12currentValueEv(%"class.Json::Reader"* %this1), !dbg !4323
  %end_112 = getelementptr inbounds %"class.Json::Reader::Token", %"class.Json::Reader::Token"* %token, i32 0, i32 2, !dbg !4324
  %40 = load i8*, i8** %end_112, align 8, !dbg !4324
  %begin_113 = getelementptr inbounds %"class.Json::Reader", %"class.Json::Reader"* %this1, i32 0, i32 3, !dbg !4325
  %41 = load i8*, i8** %begin_113, align 8, !dbg !4325
  %sub.ptr.lhs.cast114 = ptrtoint i8* %40 to i64, !dbg !4326
  %sub.ptr.rhs.cast115 = ptrtoint i8* %41 to i64, !dbg !4326
  %sub.ptr.sub116 = sub i64 %sub.ptr.lhs.cast114, %sub.ptr.rhs.cast115, !dbg !4326
  call void @_ZN4Json5Value14setOffsetLimitEm(%"class.Json::Value"* %call111, i64 %sub.ptr.sub116), !dbg !4327
  call void @_ZNSaIcEC1Ev(%"class.std::allocator.8"* %ref.tmp117) #14, !dbg !4328
  invoke void @_ZNSsC1EPKcRKSaIcE(%"class.std::basic_string"* %ref.tmp, i8* getelementptr inbounds ([47 x i8], [47 x i8]* @.str.3, i32 0, i32 0), %"class.std::allocator.8"* dereferenceable(1) %ref.tmp117)
          to label %invoke.cont119 unwind label %lpad118, !dbg !4328

invoke.cont119:                                   ; preds = %sw.default
  %call122 = invoke zeroext i1 @_ZN4Json6Reader8addErrorERKSsRNS0_5TokenEPKc(%"class.Json::Reader"* %this1, %"class.std::basic_string"* dereferenceable(8) %ref.tmp, %"class.Json::Reader::Token"* dereferenceable(24) %token, i8* null)
          to label %invoke.cont121 unwind label %lpad120, !dbg !4329

invoke.cont121:                                   ; preds = %invoke.cont119
  store i1 %call122, i1* %retval, align 1, !dbg !4330
  invoke void @_ZNSsD1Ev(%"class.std::basic_string"* %ref.tmp)
          to label %invoke.cont123 unwind label %lpad118, !dbg !4330

invoke.cont123:                                   ; preds = %invoke.cont121
  call void @_ZNSaIcED1Ev(%"class.std::allocator.8"* %ref.tmp117) #14, !dbg !4331
  br label %return, !dbg !4331

lpad118:                                          ; preds = %invoke.cont121, %sw.default
  %42 = landingpad { i8*, i32 }
          cleanup, !dbg !4332
  %43 = extractvalue { i8*, i32 } %42, 0, !dbg !4332
  store i8* %43, i8** %exn.slot, align 8, !dbg !4332
  %44 = extractvalue { i8*, i32 } %42, 1, !dbg !4332
  store i32 %44, i32* %ehselector.slot, align 4, !dbg !4332
  br label %ehcleanup, !dbg !4332

lpad120:                                          ; preds = %invoke.cont119
  %45 = landingpad { i8*, i32 }
          cleanup, !dbg !4333
  %46 = extractvalue { i8*, i32 } %45, 0, !dbg !4333
  store i8* %46, i8** %exn.slot, align 8, !dbg !4333
  %47 = extractvalue { i8*, i32 } %45, 1, !dbg !4333
  store i32 %47, i32* %ehselector.slot, align 4, !dbg !4333
  invoke void @_ZNSsD1Ev(%"class.std::basic_string"* %ref.tmp)
          to label %invoke.cont124 unwind label %terminate.lpad, !dbg !4335

invoke.cont124:                                   ; preds = %lpad120
  br label %ehcleanup, !dbg !4336

ehcleanup:                                        ; preds = %invoke.cont124, %lpad118
  call void @_ZNSaIcED1Ev(%"class.std::allocator.8"* %ref.tmp117) #14, !dbg !4337
  br label %eh.resume, !dbg !4337

sw.epilog:                                        ; preds = %invoke.cont89, %invoke.cont67, %invoke.cont48, %invoke.cont, %sw.bb27, %sw.bb24, %sw.bb15, %sw.bb
  %collectComments_125 = getelementptr inbounds %"class.Json::Reader", %"class.Json::Reader"* %this1, i32 0, i32 10, !dbg !4338
  %48 = load i8, i8* %collectComments_125, align 4, !dbg !4338
  %tobool126 = trunc i8 %48 to i1, !dbg !4338
  br i1 %tobool126, label %if.then127, label %if.end130, !dbg !4340

if.then127:                                       ; preds = %sw.epilog
  %current_128 = getelementptr inbounds %"class.Json::Reader", %"class.Json::Reader"* %this1, i32 0, i32 5, !dbg !4341
  %49 = load i8*, i8** %current_128, align 8, !dbg !4341
  %lastValueEnd_ = getelementptr inbounds %"class.Json::Reader", %"class.Json::Reader"* %this1, i32 0, i32 6, !dbg !4343
  store i8* %49, i8** %lastValueEnd_, align 8, !dbg !4344
  %call129 = call dereferenceable(40) %"class.Json::Value"* @_ZN4Json6Reader12currentValueEv(%"class.Json::Reader"* %this1), !dbg !4345
  %lastValue_ = getelementptr inbounds %"class.Json::Reader", %"class.Json::Reader"* %this1, i32 0, i32 7, !dbg !4346
  store %"class.Json::Value"* %call129, %"class.Json::Value"** %lastValue_, align 8, !dbg !4347
  br label %if.end130, !dbg !4348

if.end130:                                        ; preds = %if.then127, %sw.epilog
  %50 = load i8, i8* %successful, align 1, !dbg !4349
  %tobool131 = trunc i8 %50 to i1, !dbg !4349
  store i1 %tobool131, i1* %retval, align 1, !dbg !4350
  br label %return, !dbg !4350

return:                                           ; preds = %if.end130, %invoke.cont123
  %51 = load i1, i1* %retval, align 1, !dbg !4351
  ret i1 %51, !dbg !4351

eh.resume:                                        ; preds = %ehcleanup, %invoke.cont91, %invoke.cont69, %invoke.cont50, %invoke.cont33
  %exn = load i8*, i8** %exn.slot, align 8, !dbg !4353
  %sel = load i32, i32* %ehselector.slot, align 4, !dbg !4353
  %lpad.val = insertvalue { i8*, i32 } undef, i8* %exn, 0, !dbg !4353
  %lpad.val132 = insertvalue { i8*, i32 } %lpad.val, i32 %sel, 1, !dbg !4353
  resume { i8*, i32 } %lpad.val132, !dbg !4353

terminate.lpad:                                   ; preds = %lpad120, %lpad88, %lpad66, %lpad47, %lpad
  %52 = landingpad { i8*, i32 }
          catch i8* null, !dbg !4354
  %53 = extractvalue { i8*, i32 } %52, 0, !dbg !4354
  call void @__clang_call_terminate(i8* %53) #13, !dbg !4354
  unreachable, !dbg !4354
}

; Function Attrs: uwtable
define void @_ZN4Json6Reader17skipCommentTokensERNS0_5TokenE(%"class.Json::Reader"* %this, %"class.Json::Reader::Token"* dereferenceable(24) %token) #2 align 2 !dbg !2851 {
entry:
  %this.addr = alloca %"class.Json::Reader"*, align 8
  %token.addr = alloca %"class.Json::Reader::Token"*, align 8
  store %"class.Json::Reader"* %this, %"class.Json::Reader"** %this.addr, align 8
  call void @llvm.dbg.declare(metadata %"class.Json::Reader"** %this.addr, metadata !4355, metadata !3818), !dbg !4356
  store %"class.Json::Reader::Token"* %token, %"class.Json::Reader::Token"** %token.addr, align 8
  call void @llvm.dbg.declare(metadata %"class.Json::Reader::Token"** %token.addr, metadata !4357, metadata !3818), !dbg !4358
  %this1 = load %"class.Json::Reader"*, %"class.Json::Reader"** %this.addr, align 8
  %features_ = getelementptr inbounds %"class.Json::Reader", %"class.Json::Reader"* %this1, i32 0, i32 9, !dbg !4359
  %allowComments_ = getelementptr inbounds %"class.Json::Features", %"class.Json::Features"* %features_, i32 0, i32 0, !dbg !4361
  %0 = load i8, i8* %allowComments_, align 8, !dbg !4361
  %tobool = trunc i8 %0 to i1, !dbg !4361
  br i1 %tobool, label %if.then, label %if.else, !dbg !4362

if.then:                                          ; preds = %entry
  br label %do.body, !dbg !4363

do.body:                                          ; preds = %do.cond, %if.then
  %1 = load %"class.Json::Reader::Token"*, %"class.Json::Reader::Token"** %token.addr, align 8, !dbg !4365
  %call = call zeroext i1 @_ZN4Json6Reader9readTokenERNS0_5TokenE(%"class.Json::Reader"* %this1, %"class.Json::Reader::Token"* dereferenceable(24) %1), !dbg !4367
  br label %do.cond, !dbg !4368

do.cond:                                          ; preds = %do.body
  %2 = load %"class.Json::Reader::Token"*, %"class.Json::Reader::Token"** %token.addr, align 8, !dbg !4369
  %type_ = getelementptr inbounds %"class.Json::Reader::Token", %"class.Json::Reader::Token"* %2, i32 0, i32 0, !dbg !4371
  %3 = load i32, i32* %type_, align 8, !dbg !4371
  %cmp = icmp eq i32 %3, 12, !dbg !4372
  br i1 %cmp, label %do.body, label %do.end, !dbg !4373

do.end:                                           ; preds = %do.cond
  br label %if.end, !dbg !4374

if.else:                                          ; preds = %entry
  %4 = load %"class.Json::Reader::Token"*, %"class.Json::Reader::Token"** %token.addr, align 8, !dbg !4375
  %call2 = call zeroext i1 @_ZN4Json6Reader9readTokenERNS0_5TokenE(%"class.Json::Reader"* %this1, %"class.Json::Reader::Token"* dereferenceable(24) %4), !dbg !4377
  br label %if.end

if.end:                                           ; preds = %if.else, %do.end
  ret void, !dbg !4378
}

declare zeroext i1 @_ZNKSs5emptyEv(%"class.std::basic_string"*) #4

declare void @_ZN4Json5Value10setCommentERKSsNS_16CommentPlacementE(%"class.Json::Value"*, %"class.std::basic_string"* dereferenceable(8), i32) #4

declare zeroext i1 @_ZNK4Json5Value7isArrayEv(%"class.Json::Value"*) #4

declare zeroext i1 @_ZNK4Json5Value8isObjectEv(%"class.Json::Value"*) #4

; Function Attrs: uwtable
define zeroext i1 @_ZN4Json6Reader8addErrorERKSsRNS0_5TokenEPKc(%"class.Json::Reader"* %this, %"class.std::basic_string"* dereferenceable(8) %message, %"class.Json::Reader::Token"* dereferenceable(24) %token, i8* %extra) #2 align 2 personality i8* bitcast (i32 (...)* @__gxx_personality_v0 to i8*) !dbg !2872 {
entry:
  %this.addr = alloca %"class.Json::Reader"*, align 8
  %message.addr = alloca %"class.std::basic_string"*, align 8
  %token.addr = alloca %"class.Json::Reader::Token"*, align 8
  %extra.addr = alloca i8*, align 8
  %info = alloca %"class.Json::Reader::ErrorInfo", align 8
  %exn.slot = alloca i8*
  %ehselector.slot = alloca i32
  store %"class.Json::Reader"* %this, %"class.Json::Reader"** %this.addr, align 8
  call void @llvm.dbg.declare(metadata %"class.Json::Reader"** %this.addr, metadata !4379, metadata !3818), !dbg !4380
  store %"class.std::basic_string"* %message, %"class.std::basic_string"** %message.addr, align 8
  call void @llvm.dbg.declare(metadata %"class.std::basic_string"** %message.addr, metadata !4381, metadata !3818), !dbg !4382
  store %"class.Json::Reader::Token"* %token, %"class.Json::Reader::Token"** %token.addr, align 8
  call void @llvm.dbg.declare(metadata %"class.Json::Reader::Token"** %token.addr, metadata !4383, metadata !3818), !dbg !4384
  store i8* %extra, i8** %extra.addr, align 8
  call void @llvm.dbg.declare(metadata i8** %extra.addr, metadata !4385, metadata !3818), !dbg !4386
  %this1 = load %"class.Json::Reader"*, %"class.Json::Reader"** %this.addr, align 8
  call void @llvm.dbg.declare(metadata %"class.Json::Reader::ErrorInfo"* %info, metadata !4387, metadata !3818), !dbg !4388
  call void @_ZN4Json6Reader9ErrorInfoC2Ev(%"class.Json::Reader::ErrorInfo"* %info), !dbg !4388
  %token_ = getelementptr inbounds %"class.Json::Reader::ErrorInfo", %"class.Json::Reader::ErrorInfo"* %info, i32 0, i32 0, !dbg !4389
  %0 = load %"class.Json::Reader::Token"*, %"class.Json::Reader::Token"** %token.addr, align 8, !dbg !4390
  %1 = bitcast %"class.Json::Reader::Token"* %token_ to i8*, !dbg !4391
  %2 = bitcast %"class.Json::Reader::Token"* %0 to i8*, !dbg !4391
  call void @llvm.memcpy.p0i8.p0i8.i64(i8* %1, i8* %2, i64 24, i32 8, i1 false), !dbg !4391
  %message_ = getelementptr inbounds %"class.Json::Reader::ErrorInfo", %"class.Json::Reader::ErrorInfo"* %info, i32 0, i32 1, !dbg !4392
  %3 = load %"class.std::basic_string"*, %"class.std::basic_string"** %message.addr, align 8, !dbg !4393
  %call = invoke dereferenceable(8) %"class.std::basic_string"* @_ZNSsaSERKSs(%"class.std::basic_string"* %message_, %"class.std::basic_string"* dereferenceable(8) %3)
          to label %invoke.cont unwind label %lpad, !dbg !4394

invoke.cont:                                      ; preds = %entry
  %4 = load i8*, i8** %extra.addr, align 8, !dbg !4395
  %extra_ = getelementptr inbounds %"class.Json::Reader::ErrorInfo", %"class.Json::Reader::ErrorInfo"* %info, i32 0, i32 2, !dbg !4396
  store i8* %4, i8** %extra_, align 8, !dbg !4397
  %errors_ = getelementptr inbounds %"class.Json::Reader", %"class.Json::Reader"* %this1, i32 0, i32 1, !dbg !4398
  invoke void @_ZNSt5dequeIN4Json6Reader9ErrorInfoESaIS2_EE9push_backERKS2_(%"class.std::deque.3"* %errors_, %"class.Json::Reader::ErrorInfo"* dereferenceable(40) %info)
          to label %invoke.cont2 unwind label %lpad, !dbg !4398

invoke.cont2:                                     ; preds = %invoke.cont
  call void @_ZN4Json6Reader9ErrorInfoD2Ev(%"class.Json::Reader::ErrorInfo"* %info), !dbg !4399
  ret i1 false, !dbg !4399

lpad:                                             ; preds = %invoke.cont, %entry
  %5 = landingpad { i8*, i32 }
          cleanup, !dbg !4400
  %6 = extractvalue { i8*, i32 } %5, 0, !dbg !4400
  store i8* %6, i8** %exn.slot, align 8, !dbg !4400
  %7 = extractvalue { i8*, i32 } %5, 1, !dbg !4400
  store i32 %7, i32* %ehselector.slot, align 4, !dbg !4400
  invoke void @_ZN4Json6Reader9ErrorInfoD2Ev(%"class.Json::Reader::ErrorInfo"* %info)
          to label %invoke.cont3 unwind label %terminate.lpad, !dbg !4400

invoke.cont3:                                     ; preds = %lpad
  br label %eh.resume, !dbg !4402

eh.resume:                                        ; preds = %invoke.cont3
  %exn = load i8*, i8** %exn.slot, align 8, !dbg !4404
  %sel = load i32, i32* %ehselector.slot, align 4, !dbg !4404
  %lpad.val = insertvalue { i8*, i32 } undef, i8* %exn, 0, !dbg !4404
  %lpad.val4 = insertvalue { i8*, i32 } %lpad.val, i32 %sel, 1, !dbg !4404
  resume { i8*, i32 } %lpad.val4, !dbg !4404

terminate.lpad:                                   ; preds = %lpad
  %8 = landingpad { i8*, i32 }
          catch i8* null, !dbg !4406
  %9 = extractvalue { i8*, i32 } %8, 0, !dbg !4406
  call void @__clang_call_terminate(i8* %9) #13, !dbg !4406
  unreachable, !dbg !4406
}

; Function Attrs: nounwind
declare void @_ZNSaIcEC1Ev(%"class.std::allocator.8"*) #7

declare void @_ZNSsC1EPKcRKSaIcE(%"class.std::basic_string"*, i8*, %"class.std::allocator.8"* dereferenceable(1)) #4

; Function Attrs: nounwind
declare void @_ZNSaIcED1Ev(%"class.std::allocator.8"*) #7

declare i64 @_ZNKSs16find_last_not_ofEPKcm(%"class.std::basic_string"*, i8*, i64) #4

declare dereferenceable(8) %"class.std::basic_string"* @_ZNSs5eraseEmm(%"class.std::basic_string"*, i64, i64) #4

declare void @_ZNSs5clearEv(%"class.std::basic_string"*) #4

; Function Attrs: uwtable
define dereferenceable(40) %"class.Json::Value"* @_ZN4Json6Reader12currentValueEv(%"class.Json::Reader"* %this) #2 align 2 !dbg !2875 {
entry:
  %this.addr = alloca %"class.Json::Reader"*, align 8
  store %"class.Json::Reader"* %this, %"class.Json::Reader"** %this.addr, align 8
  call void @llvm.dbg.declare(metadata %"class.Json::Reader"** %this.addr, metadata !4408, metadata !3818), !dbg !4409
  %this1 = load %"class.Json::Reader"*, %"class.Json::Reader"** %this.addr, align 8
  %nodes_ = getelementptr inbounds %"class.Json::Reader", %"class.Json::Reader"* %this1, i32 0, i32 0, !dbg !4410
  %call = call dereferenceable(8) %"class.Json::Value"** @_ZNSt5stackIPN4Json5ValueESt5dequeIS2_SaIS2_EEE3topEv(%"class.std::stack"* %nodes_), !dbg !4410
  %0 = load %"class.Json::Value"*, %"class.Json::Value"** %call, align 8, !dbg !4410
  ret %"class.Json::Value"* %0, !dbg !4411
}

; Function Attrs: uwtable
define zeroext i1 @_ZN4Json6Reader10readObjectERNS0_5TokenE(%"class.Json::Reader"* %this, %"class.Json::Reader::Token"* dereferenceable(24) %tokenStart) #2 align 2 personality i8* bitcast (i32 (...)* @__gxx_personality_v0 to i8*) !dbg !2862 {
entry:
  %retval = alloca i1, align 1
  %this.addr = alloca %"class.Json::Reader"*, align 8
  %tokenStart.addr = alloca %"class.Json::Reader::Token"*, align 8
  %tokenName = alloca %"class.Json::Reader::Token", align 8
  %name = alloca %"class.std::basic_string", align 8
  %exn.slot = alloca i8*
  %ehselector.slot = alloca i32
  %agg.tmp = alloca %"class.Json::Value", align 8
  %initialTokenOk = alloca i8, align 1
  %cleanup.dest.slot = alloca i32
  %numberName = alloca %"class.Json::Value", align 8
  %ref.tmp = alloca %"class.std::basic_string", align 8
  %colon = alloca %"class.Json::Reader::Token", align 8
  %ref.tmp64 = alloca %"class.std::basic_string", align 8
  %ref.tmp65 = alloca %"class.std::allocator.8", align 1
  %value = alloca %"class.Json::Value"*, align 8
  %ref.tmp80 = alloca %"class.Json::Value"*, align 8
  %ok = alloca i8, align 1
  %comma = alloca %"class.Json::Reader::Token", align 8
  %ref.tmp104 = alloca %"class.std::basic_string", align 8
  %ref.tmp105 = alloca %"class.std::allocator.8", align 1
  %finalizeTokenOk = alloca i8, align 1
  %ref.tmp132 = alloca %"class.std::basic_string", align 8
  %ref.tmp133 = alloca %"class.std::allocator.8", align 1
  store %"class.Json::Reader"* %this, %"class.Json::Reader"** %this.addr, align 8
  call void @llvm.dbg.declare(metadata %"class.Json::Reader"** %this.addr, metadata !4412, metadata !3818), !dbg !4413
  store %"class.Json::Reader::Token"* %tokenStart, %"class.Json::Reader::Token"** %tokenStart.addr, align 8
  call void @llvm.dbg.declare(metadata %"class.Json::Reader::Token"** %tokenStart.addr, metadata !4414, metadata !3818), !dbg !4415
  %this1 = load %"class.Json::Reader"*, %"class.Json::Reader"** %this.addr, align 8
  call void @llvm.dbg.declare(metadata %"class.Json::Reader::Token"* %tokenName, metadata !4416, metadata !3818), !dbg !4417
  call void @llvm.dbg.declare(metadata %"class.std::basic_string"* %name, metadata !4418, metadata !3818), !dbg !4419
  call void @_ZNSsC1Ev(%"class.std::basic_string"* %name), !dbg !4419
  %call = invoke dereferenceable(40) %"class.Json::Value"* @_ZN4Json6Reader12currentValueEv(%"class.Json::Reader"* %this1)
          to label %invoke.cont unwind label %lpad, !dbg !4420

invoke.cont:                                      ; preds = %entry
  invoke void @_ZN4Json5ValueC1ENS_9ValueTypeE(%"class.Json::Value"* %agg.tmp, i32 7)
          to label %invoke.cont2 unwind label %lpad, !dbg !4421

invoke.cont2:                                     ; preds = %invoke.cont
  %call5 = invoke dereferenceable(40) %"class.Json::Value"* @_ZN4Json5ValueaSES0_(%"class.Json::Value"* %call, %"class.Json::Value"* %agg.tmp)
          to label %invoke.cont4 unwind label %lpad3, !dbg !4423

invoke.cont4:                                     ; preds = %invoke.cont2
  invoke void @_ZN4Json5ValueD1Ev(%"class.Json::Value"* %agg.tmp)
          to label %invoke.cont6 unwind label %lpad, !dbg !4425

invoke.cont6:                                     ; preds = %invoke.cont4
  %call9 = invoke dereferenceable(40) %"class.Json::Value"* @_ZN4Json6Reader12currentValueEv(%"class.Json::Reader"* %this1)
          to label %invoke.cont8 unwind label %lpad, !dbg !4427

invoke.cont8:                                     ; preds = %invoke.cont6
  %0 = load %"class.Json::Reader::Token"*, %"class.Json::Reader::Token"** %tokenStart.addr, align 8, !dbg !4428
  %start_ = getelementptr inbounds %"class.Json::Reader::Token", %"class.Json::Reader::Token"* %0, i32 0, i32 1, !dbg !4429
  %1 = load i8*, i8** %start_, align 8, !dbg !4429
  %begin_ = getelementptr inbounds %"class.Json::Reader", %"class.Json::Reader"* %this1, i32 0, i32 3, !dbg !4430
  %2 = load i8*, i8** %begin_, align 8, !dbg !4430
  %sub.ptr.lhs.cast = ptrtoint i8* %1 to i64, !dbg !4431
  %sub.ptr.rhs.cast = ptrtoint i8* %2 to i64, !dbg !4431
  %sub.ptr.sub = sub i64 %sub.ptr.lhs.cast, %sub.ptr.rhs.cast, !dbg !4431
  invoke void @_ZN4Json5Value14setOffsetStartEm(%"class.Json::Value"* %call9, i64 %sub.ptr.sub)
          to label %invoke.cont10 unwind label %lpad, !dbg !4432

invoke.cont10:                                    ; preds = %invoke.cont8
  br label %while.cond, !dbg !4433

while.cond:                                       ; preds = %if.end130, %invoke.cont10
  %call12 = invoke zeroext i1 @_ZN4Json6Reader9readTokenERNS0_5TokenE(%"class.Json::Reader"* %this1, %"class.Json::Reader::Token"* dereferenceable(24) %tokenName)
          to label %invoke.cont11 unwind label %lpad, !dbg !4434

invoke.cont11:                                    ; preds = %while.cond
  br i1 %call12, label %while.body, label %while.end131, !dbg !4435

while.body:                                       ; preds = %invoke.cont11
  call void @llvm.dbg.declare(metadata i8* %initialTokenOk, metadata !4436, metadata !3818), !dbg !4438
  store i8 1, i8* %initialTokenOk, align 1, !dbg !4438
  br label %while.cond13, !dbg !4439

while.cond13:                                     ; preds = %invoke.cont15, %while.body
  %type_ = getelementptr inbounds %"class.Json::Reader::Token", %"class.Json::Reader::Token"* %tokenName, i32 0, i32 0, !dbg !4440
  %3 = load i32, i32* %type_, align 8, !dbg !4440
  %cmp = icmp eq i32 %3, 12, !dbg !4442
  br i1 %cmp, label %land.rhs, label %land.end, !dbg !4443

land.rhs:                                         ; preds = %while.cond13
  %4 = load i8, i8* %initialTokenOk, align 1, !dbg !4444
  %tobool = trunc i8 %4 to i1, !dbg !4444
  br label %land.end

land.end:                                         ; preds = %land.rhs, %while.cond13
  %5 = phi i1 [ false, %while.cond13 ], [ %tobool, %land.rhs ]
  br i1 %5, label %while.body14, label %while.end, !dbg !4446

while.body14:                                     ; preds = %land.end
  %call16 = invoke zeroext i1 @_ZN4Json6Reader9readTokenERNS0_5TokenE(%"class.Json::Reader"* %this1, %"class.Json::Reader::Token"* dereferenceable(24) %tokenName)
          to label %invoke.cont15 unwind label %lpad, !dbg !4448

invoke.cont15:                                    ; preds = %while.body14
  %frombool = zext i1 %call16 to i8, !dbg !4449
  store i8 %frombool, i8* %initialTokenOk, align 1, !dbg !4449
  br label %while.cond13, !dbg !4450

lpad:                                             ; preds = %while.body122, %if.end91, %if.then88, %invoke.cont82, %invoke.cont81, %invoke.cont78, %invoke.cont76, %if.end75, %if.end58, %cleanup, %if.then39, %if.then31, %if.then28, %if.end23, %land.lhs.true, %while.body14, %while.cond, %invoke.cont8, %invoke.cont6, %invoke.cont4, %invoke.cont, %entry
  %6 = landingpad { i8*, i32 }
          cleanup, !dbg !4452
  %7 = extractvalue { i8*, i32 } %6, 0, !dbg !4452
  store i8* %7, i8** %exn.slot, align 8, !dbg !4452
  %8 = extractvalue { i8*, i32 } %6, 1, !dbg !4452
  store i32 %8, i32* %ehselector.slot, align 4, !dbg !4452
  br label %ehcleanup144, !dbg !4452

lpad3:                                            ; preds = %invoke.cont2
  %9 = landingpad { i8*, i32 }
          cleanup, !dbg !4453
  %10 = extractvalue { i8*, i32 } %9, 0, !dbg !4453
  store i8* %10, i8** %exn.slot, align 8, !dbg !4453
  %11 = extractvalue { i8*, i32 } %9, 1, !dbg !4453
  store i32 %11, i32* %ehselector.slot, align 4, !dbg !4453
  invoke void @_ZN4Json5ValueD1Ev(%"class.Json::Value"* %agg.tmp)
          to label %invoke.cont7 unwind label %terminate.lpad, !dbg !4454

invoke.cont7:                                     ; preds = %lpad3
  br label %ehcleanup144, !dbg !4456

while.end:                                        ; preds = %land.end
  %12 = load i8, i8* %initialTokenOk, align 1, !dbg !4458
  %tobool17 = trunc i8 %12 to i1, !dbg !4458
  br i1 %tobool17, label %if.end, label %if.then, !dbg !4460

if.then:                                          ; preds = %while.end
  br label %while.end131, !dbg !4461

if.end:                                           ; preds = %while.end
  %type_18 = getelementptr inbounds %"class.Json::Reader::Token", %"class.Json::Reader::Token"* %tokenName, i32 0, i32 0, !dbg !4462
  %13 = load i32, i32* %type_18, align 8, !dbg !4462
  %cmp19 = icmp eq i32 %13, 2, !dbg !4464
  br i1 %cmp19, label %land.lhs.true, label %if.end23, !dbg !4465

land.lhs.true:                                    ; preds = %if.end
  %call21 = invoke zeroext i1 @_ZNKSs5emptyEv(%"class.std::basic_string"* %name)
          to label %invoke.cont20 unwind label %lpad, !dbg !4466

invoke.cont20:                                    ; preds = %land.lhs.true
  br i1 %call21, label %if.then22, label %if.end23, !dbg !4468

if.then22:                                        ; preds = %invoke.cont20
  store i1 true, i1* %retval, align 1, !dbg !4469
  store i32 1, i32* %cleanup.dest.slot, align 4
  br label %cleanup143, !dbg !4469

if.end23:                                         ; preds = %invoke.cont20, %if.end
  %call25 = invoke dereferenceable(8) %"class.std::basic_string"* @_ZNSsaSEPKc(%"class.std::basic_string"* %name, i8* getelementptr inbounds ([1 x i8], [1 x i8]* @.str, i32 0, i32 0))
          to label %invoke.cont24 unwind label %lpad, !dbg !4470

invoke.cont24:                                    ; preds = %if.end23
  %type_26 = getelementptr inbounds %"class.Json::Reader::Token", %"class.Json::Reader::Token"* %tokenName, i32 0, i32 0, !dbg !4471
  %14 = load i32, i32* %type_26, align 8, !dbg !4471
  %cmp27 = icmp eq i32 %14, 5, !dbg !4473
  br i1 %cmp27, label %if.then28, label %if.else, !dbg !4474

if.then28:                                        ; preds = %invoke.cont24
  %call30 = invoke zeroext i1 @_ZN4Json6Reader12decodeStringERNS0_5TokenERSs(%"class.Json::Reader"* %this1, %"class.Json::Reader::Token"* dereferenceable(24) %tokenName, %"class.std::basic_string"* dereferenceable(8) %name)
          to label %invoke.cont29 unwind label %lpad, !dbg !4475

invoke.cont29:                                    ; preds = %if.then28
  br i1 %call30, label %if.end34, label %if.then31, !dbg !4478

if.then31:                                        ; preds = %invoke.cont29
  %call33 = invoke zeroext i1 @_ZN4Json6Reader16recoverFromErrorENS0_9TokenTypeE(%"class.Json::Reader"* %this1, i32 2)
          to label %invoke.cont32 unwind label %lpad, !dbg !4480

invoke.cont32:                                    ; preds = %if.then31
  store i1 %call33, i1* %retval, align 1, !dbg !4481
  store i32 1, i32* %cleanup.dest.slot, align 4
  br label %cleanup143, !dbg !4481

if.end34:                                         ; preds = %invoke.cont29
  br label %if.end58, !dbg !4483

if.else:                                          ; preds = %invoke.cont24
  %type_35 = getelementptr inbounds %"class.Json::Reader::Token", %"class.Json::Reader::Token"* %tokenName, i32 0, i32 0, !dbg !4484
  %15 = load i32, i32* %type_35, align 8, !dbg !4484
  %cmp36 = icmp eq i32 %15, 6, !dbg !4487
  br i1 %cmp36, label %land.lhs.true37, label %if.else56, !dbg !4488

land.lhs.true37:                                  ; preds = %if.else
  %features_ = getelementptr inbounds %"class.Json::Reader", %"class.Json::Reader"* %this1, i32 0, i32 9, !dbg !4489
  %allowNumericKeys_ = getelementptr inbounds %"class.Json::Features", %"class.Json::Features"* %features_, i32 0, i32 3, !dbg !4491
  %16 = load i8, i8* %allowNumericKeys_, align 1, !dbg !4491
  %tobool38 = trunc i8 %16 to i1, !dbg !4491
  br i1 %tobool38, label %if.then39, label %if.else56, !dbg !4492

if.then39:                                        ; preds = %land.lhs.true37
  call void @llvm.dbg.declare(metadata %"class.Json::Value"* %numberName, metadata !4493, metadata !3818), !dbg !4495
  invoke void @_ZN4Json5ValueC1ENS_9ValueTypeE(%"class.Json::Value"* %numberName, i32 0)
          to label %invoke.cont40 unwind label %lpad, !dbg !4495

invoke.cont40:                                    ; preds = %if.then39
  %call43 = invoke zeroext i1 @_ZN4Json6Reader12decodeNumberERNS0_5TokenERNS_5ValueE(%"class.Json::Reader"* %this1, %"class.Json::Reader::Token"* dereferenceable(24) %tokenName, %"class.Json::Value"* dereferenceable(40) %numberName)
          to label %invoke.cont42 unwind label %lpad41, !dbg !4496

invoke.cont42:                                    ; preds = %invoke.cont40
  br i1 %call43, label %if.end47, label %if.then44, !dbg !4498

if.then44:                                        ; preds = %invoke.cont42
  %call46 = invoke zeroext i1 @_ZN4Json6Reader16recoverFromErrorENS0_9TokenTypeE(%"class.Json::Reader"* %this1, i32 2)
          to label %invoke.cont45 unwind label %lpad41, !dbg !4500

invoke.cont45:                                    ; preds = %if.then44
  store i1 %call46, i1* %retval, align 1, !dbg !4501
  store i32 1, i32* %cleanup.dest.slot, align 4
  br label %cleanup, !dbg !4501

lpad41:                                           ; preds = %invoke.cont50, %if.end47, %if.then44, %invoke.cont40
  %17 = landingpad { i8*, i32 }
          cleanup, !dbg !4503
  %18 = extractvalue { i8*, i32 } %17, 0, !dbg !4503
  store i8* %18, i8** %exn.slot, align 8, !dbg !4503
  %19 = extractvalue { i8*, i32 } %17, 1, !dbg !4503
  store i32 %19, i32* %ehselector.slot, align 4, !dbg !4503
  br label %ehcleanup, !dbg !4503

if.end47:                                         ; preds = %invoke.cont42
  invoke void @_ZNK4Json5Value8asStringEv(%"class.std::basic_string"* sret %ref.tmp, %"class.Json::Value"* %numberName)
          to label %invoke.cont48 unwind label %lpad41, !dbg !4505

invoke.cont48:                                    ; preds = %if.end47
  %call51 = invoke dereferenceable(8) %"class.std::basic_string"* @_ZNSsaSERKSs(%"class.std::basic_string"* %name, %"class.std::basic_string"* dereferenceable(8) %ref.tmp)
          to label %invoke.cont50 unwind label %lpad49, !dbg !4506

invoke.cont50:                                    ; preds = %invoke.cont48
  invoke void @_ZNSsD1Ev(%"class.std::basic_string"* %ref.tmp)
          to label %invoke.cont52 unwind label %lpad41, !dbg !4507

invoke.cont52:                                    ; preds = %invoke.cont50
  store i32 0, i32* %cleanup.dest.slot, align 4, !dbg !4509
  br label %cleanup, !dbg !4509

cleanup:                                          ; preds = %invoke.cont52, %invoke.cont45
  invoke void @_ZN4Json5ValueD1Ev(%"class.Json::Value"* %numberName)
          to label %invoke.cont54 unwind label %lpad, !dbg !4510

invoke.cont54:                                    ; preds = %cleanup
  %cleanup.dest = load i32, i32* %cleanup.dest.slot, align 4
  switch i32 %cleanup.dest, label %cleanup143 [
    i32 0, label %cleanup.cont
  ]

cleanup.cont:                                     ; preds = %invoke.cont54
  br label %if.end57, !dbg !4511

lpad49:                                           ; preds = %invoke.cont48
  %20 = landingpad { i8*, i32 }
          cleanup, !dbg !4512
  %21 = extractvalue { i8*, i32 } %20, 0, !dbg !4512
  store i8* %21, i8** %exn.slot, align 8, !dbg !4512
  %22 = extractvalue { i8*, i32 } %20, 1, !dbg !4512
  store i32 %22, i32* %ehselector.slot, align 4, !dbg !4512
  invoke void @_ZNSsD1Ev(%"class.std::basic_string"* %ref.tmp)
          to label %invoke.cont53 unwind label %terminate.lpad, !dbg !4514

invoke.cont53:                                    ; preds = %lpad49
  br label %ehcleanup, !dbg !4515

ehcleanup:                                        ; preds = %invoke.cont53, %lpad41
  invoke void @_ZN4Json5ValueD1Ev(%"class.Json::Value"* %numberName)
          to label %invoke.cont55 unwind label %terminate.lpad, !dbg !4517

invoke.cont55:                                    ; preds = %ehcleanup
  br label %ehcleanup144, !dbg !4519

if.else56:                                        ; preds = %land.lhs.true37, %if.else
  br label %while.end131, !dbg !4521

if.end57:                                         ; preds = %cleanup.cont
  br label %if.end58

if.end58:                                         ; preds = %if.end57, %if.end34
  call void @llvm.dbg.declare(metadata %"class.Json::Reader::Token"* %colon, metadata !4523, metadata !3818), !dbg !4524
  %call60 = invoke zeroext i1 @_ZN4Json6Reader9readTokenERNS0_5TokenE(%"class.Json::Reader"* %this1, %"class.Json::Reader::Token"* dereferenceable(24) %colon)
          to label %invoke.cont59 unwind label %lpad, !dbg !4525

invoke.cont59:                                    ; preds = %if.end58
  br i1 %call60, label %lor.lhs.false, label %if.then63, !dbg !4527

lor.lhs.false:                                    ; preds = %invoke.cont59
  %type_61 = getelementptr inbounds %"class.Json::Reader::Token", %"class.Json::Reader::Token"* %colon, i32 0, i32 0, !dbg !4529
  %23 = load i32, i32* %type_61, align 8, !dbg !4529
  %cmp62 = icmp ne i32 %23, 11, !dbg !4531
  br i1 %cmp62, label %if.then63, label %if.end75, !dbg !4532

if.then63:                                        ; preds = %lor.lhs.false, %invoke.cont59
  call void @_ZNSaIcEC1Ev(%"class.std::allocator.8"* %ref.tmp65) #14, !dbg !4533
  invoke void @_ZNSsC1EPKcRKSaIcE(%"class.std::basic_string"* %ref.tmp64, i8* getelementptr inbounds ([37 x i8], [37 x i8]* @.str.10, i32 0, i32 0), %"class.std::allocator.8"* dereferenceable(1) %ref.tmp65)
          to label %invoke.cont67 unwind label %lpad66, !dbg !4533

invoke.cont67:                                    ; preds = %if.then63
  %call70 = invoke zeroext i1 @_ZN4Json6Reader18addErrorAndRecoverERKSsRNS0_5TokenENS0_9TokenTypeE(%"class.Json::Reader"* %this1, %"class.std::basic_string"* dereferenceable(8) %ref.tmp64, %"class.Json::Reader::Token"* dereferenceable(24) %colon, i32 2)
          to label %invoke.cont69 unwind label %lpad68, !dbg !4535

invoke.cont69:                                    ; preds = %invoke.cont67
  store i1 %call70, i1* %retval, align 1, !dbg !4536
  invoke void @_ZNSsD1Ev(%"class.std::basic_string"* %ref.tmp64)
          to label %invoke.cont71 unwind label %lpad66, !dbg !4536

invoke.cont71:                                    ; preds = %invoke.cont69
  call void @_ZNSaIcED1Ev(%"class.std::allocator.8"* %ref.tmp65) #14, !dbg !4538
  store i32 1, i32* %cleanup.dest.slot, align 4
  br label %cleanup143, !dbg !4538

lpad66:                                           ; preds = %invoke.cont69, %if.then63
  %24 = landingpad { i8*, i32 }
          cleanup, !dbg !4540
  %25 = extractvalue { i8*, i32 } %24, 0, !dbg !4540
  store i8* %25, i8** %exn.slot, align 8, !dbg !4540
  %26 = extractvalue { i8*, i32 } %24, 1, !dbg !4540
  store i32 %26, i32* %ehselector.slot, align 4, !dbg !4540
  br label %ehcleanup74, !dbg !4540

lpad68:                                           ; preds = %invoke.cont67
  %27 = landingpad { i8*, i32 }
          cleanup, !dbg !4542
  %28 = extractvalue { i8*, i32 } %27, 0, !dbg !4542
  store i8* %28, i8** %exn.slot, align 8, !dbg !4542
  %29 = extractvalue { i8*, i32 } %27, 1, !dbg !4542
  store i32 %29, i32* %ehselector.slot, align 4, !dbg !4542
  invoke void @_ZNSsD1Ev(%"class.std::basic_string"* %ref.tmp64)
          to label %invoke.cont73 unwind label %terminate.lpad, !dbg !4544

invoke.cont73:                                    ; preds = %lpad68
  br label %ehcleanup74, !dbg !4546

ehcleanup74:                                      ; preds = %invoke.cont73, %lpad66
  call void @_ZNSaIcED1Ev(%"class.std::allocator.8"* %ref.tmp65) #14, !dbg !4547
  br label %ehcleanup144, !dbg !4547

if.end75:                                         ; preds = %lor.lhs.false
  call void @llvm.dbg.declare(metadata %"class.Json::Value"** %value, metadata !4548, metadata !3818), !dbg !4549
  %call77 = invoke dereferenceable(40) %"class.Json::Value"* @_ZN4Json6Reader12currentValueEv(%"class.Json::Reader"* %this1)
          to label %invoke.cont76 unwind label %lpad, !dbg !4550

invoke.cont76:                                    ; preds = %if.end75
  %call79 = invoke dereferenceable(40) %"class.Json::Value"* @_ZN4Json5ValueixERKSs(%"class.Json::Value"* %call77, %"class.std::basic_string"* dereferenceable(8) %name)
          to label %invoke.cont78 unwind label %lpad, !dbg !4551

invoke.cont78:                                    ; preds = %invoke.cont76
  store %"class.Json::Value"* %call79, %"class.Json::Value"** %value, align 8, !dbg !4552
  %nodes_ = getelementptr inbounds %"class.Json::Reader", %"class.Json::Reader"* %this1, i32 0, i32 0, !dbg !4553
  %30 = load %"class.Json::Value"*, %"class.Json::Value"** %value, align 8, !dbg !4554
  store %"class.Json::Value"* %30, %"class.Json::Value"** %ref.tmp80, align 8, !dbg !4555
  invoke void @_ZNSt5stackIPN4Json5ValueESt5dequeIS2_SaIS2_EEE4pushERKS2_(%"class.std::stack"* %nodes_, %"class.Json::Value"** dereferenceable(8) %ref.tmp80)
          to label %invoke.cont81 unwind label %lpad, !dbg !4553

invoke.cont81:                                    ; preds = %invoke.cont78
  call void @llvm.dbg.declare(metadata i8* %ok, metadata !4556, metadata !3818), !dbg !4557
  %call83 = invoke zeroext i1 @_ZN4Json6Reader9readValueEv(%"class.Json::Reader"* %this1)
          to label %invoke.cont82 unwind label %lpad, !dbg !4558

invoke.cont82:                                    ; preds = %invoke.cont81
  %frombool84 = zext i1 %call83 to i8, !dbg !4559
  store i8 %frombool84, i8* %ok, align 1, !dbg !4559
  %nodes_85 = getelementptr inbounds %"class.Json::Reader", %"class.Json::Reader"* %this1, i32 0, i32 0, !dbg !4560
  invoke void @_ZNSt5stackIPN4Json5ValueESt5dequeIS2_SaIS2_EEE3popEv(%"class.std::stack"* %nodes_85)
          to label %invoke.cont86 unwind label %lpad, !dbg !4560

invoke.cont86:                                    ; preds = %invoke.cont82
  %31 = load i8, i8* %ok, align 1, !dbg !4561
  %tobool87 = trunc i8 %31 to i1, !dbg !4561
  br i1 %tobool87, label %if.end91, label %if.then88, !dbg !4563

if.then88:                                        ; preds = %invoke.cont86
  %call90 = invoke zeroext i1 @_ZN4Json6Reader16recoverFromErrorENS0_9TokenTypeE(%"class.Json::Reader"* %this1, i32 2)
          to label %invoke.cont89 unwind label %lpad, !dbg !4564

invoke.cont89:                                    ; preds = %if.then88
  store i1 %call90, i1* %retval, align 1, !dbg !4565
  store i32 1, i32* %cleanup.dest.slot, align 4
  br label %cleanup143, !dbg !4565

if.end91:                                         ; preds = %invoke.cont86
  call void @llvm.dbg.declare(metadata %"class.Json::Reader::Token"* %comma, metadata !4567, metadata !3818), !dbg !4568
  %call93 = invoke zeroext i1 @_ZN4Json6Reader9readTokenERNS0_5TokenE(%"class.Json::Reader"* %this1, %"class.Json::Reader::Token"* dereferenceable(24) %comma)
          to label %invoke.cont92 unwind label %lpad, !dbg !4569

invoke.cont92:                                    ; preds = %if.end91
  br i1 %call93, label %lor.lhs.false94, label %if.then103, !dbg !4571

lor.lhs.false94:                                  ; preds = %invoke.cont92
  %type_95 = getelementptr inbounds %"class.Json::Reader::Token", %"class.Json::Reader::Token"* %comma, i32 0, i32 0, !dbg !4573
  %32 = load i32, i32* %type_95, align 8, !dbg !4573
  %cmp96 = icmp ne i32 %32, 2, !dbg !4574
  br i1 %cmp96, label %land.lhs.true97, label %if.end115, !dbg !4575

land.lhs.true97:                                  ; preds = %lor.lhs.false94
  %type_98 = getelementptr inbounds %"class.Json::Reader::Token", %"class.Json::Reader::Token"* %comma, i32 0, i32 0, !dbg !4576
  %33 = load i32, i32* %type_98, align 8, !dbg !4576
  %cmp99 = icmp ne i32 %33, 10, !dbg !4577
  br i1 %cmp99, label %land.lhs.true100, label %if.end115, !dbg !4578

land.lhs.true100:                                 ; preds = %land.lhs.true97
  %type_101 = getelementptr inbounds %"class.Json::Reader::Token", %"class.Json::Reader::Token"* %comma, i32 0, i32 0, !dbg !4579
  %34 = load i32, i32* %type_101, align 8, !dbg !4579
  %cmp102 = icmp ne i32 %34, 12, !dbg !4580
  br i1 %cmp102, label %if.then103, label %if.end115, !dbg !4581

if.then103:                                       ; preds = %land.lhs.true100, %invoke.cont92
  call void @_ZNSaIcEC1Ev(%"class.std::allocator.8"* %ref.tmp105) #14, !dbg !4582
  invoke void @_ZNSsC1EPKcRKSaIcE(%"class.std::basic_string"* %ref.tmp104, i8* getelementptr inbounds ([41 x i8], [41 x i8]* @.str.11, i32 0, i32 0), %"class.std::allocator.8"* dereferenceable(1) %ref.tmp105)
          to label %invoke.cont107 unwind label %lpad106, !dbg !4582

invoke.cont107:                                   ; preds = %if.then103
  %call110 = invoke zeroext i1 @_ZN4Json6Reader18addErrorAndRecoverERKSsRNS0_5TokenENS0_9TokenTypeE(%"class.Json::Reader"* %this1, %"class.std::basic_string"* dereferenceable(8) %ref.tmp104, %"class.Json::Reader::Token"* dereferenceable(24) %comma, i32 2)
          to label %invoke.cont109 unwind label %lpad108, !dbg !4584

invoke.cont109:                                   ; preds = %invoke.cont107
  store i1 %call110, i1* %retval, align 1, !dbg !4585
  invoke void @_ZNSsD1Ev(%"class.std::basic_string"* %ref.tmp104)
          to label %invoke.cont111 unwind label %lpad106, !dbg !4585

invoke.cont111:                                   ; preds = %invoke.cont109
  call void @_ZNSaIcED1Ev(%"class.std::allocator.8"* %ref.tmp105) #14, !dbg !4587
  store i32 1, i32* %cleanup.dest.slot, align 4
  br label %cleanup143, !dbg !4587

lpad106:                                          ; preds = %invoke.cont109, %if.then103
  %35 = landingpad { i8*, i32 }
          cleanup, !dbg !4589
  %36 = extractvalue { i8*, i32 } %35, 0, !dbg !4589
  store i8* %36, i8** %exn.slot, align 8, !dbg !4589
  %37 = extractvalue { i8*, i32 } %35, 1, !dbg !4589
  store i32 %37, i32* %ehselector.slot, align 4, !dbg !4589
  br label %ehcleanup114, !dbg !4589

lpad108:                                          ; preds = %invoke.cont107
  %38 = landingpad { i8*, i32 }
          cleanup, !dbg !4591
  %39 = extractvalue { i8*, i32 } %38, 0, !dbg !4591
  store i8* %39, i8** %exn.slot, align 8, !dbg !4591
  %40 = extractvalue { i8*, i32 } %38, 1, !dbg !4591
  store i32 %40, i32* %ehselector.slot, align 4, !dbg !4591
  invoke void @_ZNSsD1Ev(%"class.std::basic_string"* %ref.tmp104)
          to label %invoke.cont113 unwind label %terminate.lpad, !dbg !4593

invoke.cont113:                                   ; preds = %lpad108
  br label %ehcleanup114, !dbg !4595

ehcleanup114:                                     ; preds = %invoke.cont113, %lpad106
  call void @_ZNSaIcED1Ev(%"class.std::allocator.8"* %ref.tmp105) #14, !dbg !4597
  br label %ehcleanup144, !dbg !4597

if.end115:                                        ; preds = %land.lhs.true100, %land.lhs.true97, %lor.lhs.false94
  call void @llvm.dbg.declare(metadata i8* %finalizeTokenOk, metadata !4599, metadata !3818), !dbg !4600
  store i8 1, i8* %finalizeTokenOk, align 1, !dbg !4600
  br label %while.cond116, !dbg !4601

while.cond116:                                    ; preds = %invoke.cont123, %if.end115
  %type_117 = getelementptr inbounds %"class.Json::Reader::Token", %"class.Json::Reader::Token"* %comma, i32 0, i32 0, !dbg !4602
  %41 = load i32, i32* %type_117, align 8, !dbg !4602
  %cmp118 = icmp eq i32 %41, 12, !dbg !4603
  br i1 %cmp118, label %land.rhs119, label %land.end121, !dbg !4604

land.rhs119:                                      ; preds = %while.cond116
  %42 = load i8, i8* %finalizeTokenOk, align 1, !dbg !4605
  %tobool120 = trunc i8 %42 to i1, !dbg !4605
  br label %land.end121

land.end121:                                      ; preds = %land.rhs119, %while.cond116
  %43 = phi i1 [ false, %while.cond116 ], [ %tobool120, %land.rhs119 ]
  br i1 %43, label %while.body122, label %while.end126, !dbg !4606

while.body122:                                    ; preds = %land.end121
  %call124 = invoke zeroext i1 @_ZN4Json6Reader9readTokenERNS0_5TokenE(%"class.Json::Reader"* %this1, %"class.Json::Reader::Token"* dereferenceable(24) %comma)
          to label %invoke.cont123 unwind label %lpad, !dbg !4607

invoke.cont123:                                   ; preds = %while.body122
  %frombool125 = zext i1 %call124 to i8, !dbg !4608
  store i8 %frombool125, i8* %finalizeTokenOk, align 1, !dbg !4608
  br label %while.cond116, !dbg !4609

while.end126:                                     ; preds = %land.end121
  %type_127 = getelementptr inbounds %"class.Json::Reader::Token", %"class.Json::Reader::Token"* %comma, i32 0, i32 0, !dbg !4610
  %44 = load i32, i32* %type_127, align 8, !dbg !4610
  %cmp128 = icmp eq i32 %44, 2, !dbg !4612
  br i1 %cmp128, label %if.then129, label %if.end130, !dbg !4613

if.then129:                                       ; preds = %while.end126
  store i1 true, i1* %retval, align 1, !dbg !4614
  store i32 1, i32* %cleanup.dest.slot, align 4
  br label %cleanup143, !dbg !4614

if.end130:                                        ; preds = %while.end126
  br label %while.cond, !dbg !4615

while.end131:                                     ; preds = %if.else56, %if.then, %invoke.cont11
  call void @_ZNSaIcEC1Ev(%"class.std::allocator.8"* %ref.tmp133) #14, !dbg !4616
  invoke void @_ZNSsC1EPKcRKSaIcE(%"class.std::basic_string"* %ref.tmp132, i8* getelementptr inbounds ([34 x i8], [34 x i8]* @.str.12, i32 0, i32 0), %"class.std::allocator.8"* dereferenceable(1) %ref.tmp133)
          to label %invoke.cont135 unwind label %lpad134, !dbg !4616

invoke.cont135:                                   ; preds = %while.end131
  %call138 = invoke zeroext i1 @_ZN4Json6Reader18addErrorAndRecoverERKSsRNS0_5TokenENS0_9TokenTypeE(%"class.Json::Reader"* %this1, %"class.std::basic_string"* dereferenceable(8) %ref.tmp132, %"class.Json::Reader::Token"* dereferenceable(24) %tokenName, i32 2)
          to label %invoke.cont137 unwind label %lpad136, !dbg !4617

invoke.cont137:                                   ; preds = %invoke.cont135
  store i1 %call138, i1* %retval, align 1, !dbg !4618
  invoke void @_ZNSsD1Ev(%"class.std::basic_string"* %ref.tmp132)
          to label %invoke.cont139 unwind label %lpad134, !dbg !4618

invoke.cont139:                                   ; preds = %invoke.cont137
  call void @_ZNSaIcED1Ev(%"class.std::allocator.8"* %ref.tmp133) #14, !dbg !4619
  store i32 1, i32* %cleanup.dest.slot, align 4
  br label %cleanup143, !dbg !4619

lpad134:                                          ; preds = %invoke.cont137, %while.end131
  %45 = landingpad { i8*, i32 }
          cleanup, !dbg !4620
  %46 = extractvalue { i8*, i32 } %45, 0, !dbg !4620
  store i8* %46, i8** %exn.slot, align 8, !dbg !4620
  %47 = extractvalue { i8*, i32 } %45, 1, !dbg !4620
  store i32 %47, i32* %ehselector.slot, align 4, !dbg !4620
  br label %ehcleanup142, !dbg !4620

lpad136:                                          ; preds = %invoke.cont135
  %48 = landingpad { i8*, i32 }
          cleanup, !dbg !4622
  %49 = extractvalue { i8*, i32 } %48, 0, !dbg !4622
  store i8* %49, i8** %exn.slot, align 8, !dbg !4622
  %50 = extractvalue { i8*, i32 } %48, 1, !dbg !4622
  store i32 %50, i32* %ehselector.slot, align 4, !dbg !4622
  invoke void @_ZNSsD1Ev(%"class.std::basic_string"* %ref.tmp132)
          to label %invoke.cont141 unwind label %terminate.lpad, !dbg !4624

invoke.cont141:                                   ; preds = %lpad136
  br label %ehcleanup142, !dbg !4625

ehcleanup142:                                     ; preds = %invoke.cont141, %lpad134
  call void @_ZNSaIcED1Ev(%"class.std::allocator.8"* %ref.tmp133) #14, !dbg !4626
  br label %ehcleanup144, !dbg !4626

cleanup143:                                       ; preds = %invoke.cont139, %if.then129, %invoke.cont111, %invoke.cont89, %invoke.cont71, %invoke.cont54, %invoke.cont32, %if.then22
  call void @_ZNSsD1Ev(%"class.std::basic_string"* %name), !dbg !4627
  %51 = load i1, i1* %retval, align 1, !dbg !4627
  ret i1 %51, !dbg !4627

ehcleanup144:                                     ; preds = %ehcleanup142, %ehcleanup114, %ehcleanup74, %invoke.cont55, %invoke.cont7, %lpad
  invoke void @_ZNSsD1Ev(%"class.std::basic_string"* %name)
          to label %invoke.cont145 unwind label %terminate.lpad, !dbg !4629

invoke.cont145:                                   ; preds = %ehcleanup144
  br label %eh.resume, !dbg !4631

eh.resume:                                        ; preds = %invoke.cont145
  %exn = load i8*, i8** %exn.slot, align 8, !dbg !4633
  %sel = load i32, i32* %ehselector.slot, align 4, !dbg !4633
  %lpad.val = insertvalue { i8*, i32 } undef, i8* %exn, 0, !dbg !4633
  %lpad.val146 = insertvalue { i8*, i32 } %lpad.val, i32 %sel, 1, !dbg !4633
  resume { i8*, i32 } %lpad.val146, !dbg !4633

terminate.lpad:                                   ; preds = %ehcleanup144, %lpad136, %lpad108, %lpad68, %ehcleanup, %lpad49, %lpad3
  %52 = landingpad { i8*, i32 }
          catch i8* null, !dbg !4635
  %53 = extractvalue { i8*, i32 } %52, 0, !dbg !4635
  call void @__clang_call_terminate(i8* %53) #13, !dbg !4635
  unreachable, !dbg !4635
}

declare void @_ZN4Json5Value14setOffsetLimitEm(%"class.Json::Value"*, i64) #4

; Function Attrs: uwtable
define zeroext i1 @_ZN4Json6Reader9readArrayERNS0_5TokenE(%"class.Json::Reader"* %this, %"class.Json::Reader::Token"* dereferenceable(24) %tokenStart) #2 align 2 personality i8* bitcast (i32 (...)* @__gxx_personality_v0 to i8*) !dbg !2863 {
entry:
  %retval = alloca i1, align 1
  %this.addr = alloca %"class.Json::Reader"*, align 8
  %tokenStart.addr = alloca %"class.Json::Reader::Token"*, align 8
  %agg.tmp = alloca %"class.Json::Value", align 8
  %exn.slot = alloca i8*
  %ehselector.slot = alloca i32
  %endArray = alloca %"class.Json::Reader::Token", align 8
  %index = alloca i32, align 4
  %value = alloca %"class.Json::Value"*, align 8
  %ref.tmp = alloca %"class.Json::Value"*, align 8
  %ok = alloca i8, align 1
  %token = alloca %"class.Json::Reader::Token", align 8
  %badTokenType = alloca i8, align 1
  %ref.tmp29 = alloca %"class.std::basic_string", align 8
  %ref.tmp30 = alloca %"class.std::allocator.8", align 1
  store %"class.Json::Reader"* %this, %"class.Json::Reader"** %this.addr, align 8
  call void @llvm.dbg.declare(metadata %"class.Json::Reader"** %this.addr, metadata !4637, metadata !3818), !dbg !4638
  store %"class.Json::Reader::Token"* %tokenStart, %"class.Json::Reader::Token"** %tokenStart.addr, align 8
  call void @llvm.dbg.declare(metadata %"class.Json::Reader::Token"** %tokenStart.addr, metadata !4639, metadata !3818), !dbg !4640
  %this1 = load %"class.Json::Reader"*, %"class.Json::Reader"** %this.addr, align 8
  %call = call dereferenceable(40) %"class.Json::Value"* @_ZN4Json6Reader12currentValueEv(%"class.Json::Reader"* %this1), !dbg !4641
  call void @_ZN4Json5ValueC1ENS_9ValueTypeE(%"class.Json::Value"* %agg.tmp, i32 6), !dbg !4642
  %call2 = invoke dereferenceable(40) %"class.Json::Value"* @_ZN4Json5ValueaSES0_(%"class.Json::Value"* %call, %"class.Json::Value"* %agg.tmp)
          to label %invoke.cont unwind label %lpad, !dbg !4644

invoke.cont:                                      ; preds = %entry
  call void @_ZN4Json5ValueD1Ev(%"class.Json::Value"* %agg.tmp), !dbg !4645
  %call4 = call dereferenceable(40) %"class.Json::Value"* @_ZN4Json6Reader12currentValueEv(%"class.Json::Reader"* %this1), !dbg !4647
  %0 = load %"class.Json::Reader::Token"*, %"class.Json::Reader::Token"** %tokenStart.addr, align 8, !dbg !4648
  %start_ = getelementptr inbounds %"class.Json::Reader::Token", %"class.Json::Reader::Token"* %0, i32 0, i32 1, !dbg !4649
  %1 = load i8*, i8** %start_, align 8, !dbg !4649
  %begin_ = getelementptr inbounds %"class.Json::Reader", %"class.Json::Reader"* %this1, i32 0, i32 3, !dbg !4650
  %2 = load i8*, i8** %begin_, align 8, !dbg !4650
  %sub.ptr.lhs.cast = ptrtoint i8* %1 to i64, !dbg !4651
  %sub.ptr.rhs.cast = ptrtoint i8* %2 to i64, !dbg !4651
  %sub.ptr.sub = sub i64 %sub.ptr.lhs.cast, %sub.ptr.rhs.cast, !dbg !4651
  call void @_ZN4Json5Value14setOffsetStartEm(%"class.Json::Value"* %call4, i64 %sub.ptr.sub), !dbg !4652
  call void @_ZN4Json6Reader10skipSpacesEv(%"class.Json::Reader"* %this1), !dbg !4653
  %current_ = getelementptr inbounds %"class.Json::Reader", %"class.Json::Reader"* %this1, i32 0, i32 5, !dbg !4654
  %3 = load i8*, i8** %current_, align 8, !dbg !4654
  %4 = load i8, i8* %3, align 1, !dbg !4656
  %conv = sext i8 %4 to i32, !dbg !4656
  %cmp = icmp eq i32 %conv, 93, !dbg !4657
  br i1 %cmp, label %if.then, label %if.end, !dbg !4658

if.then:                                          ; preds = %invoke.cont
  call void @llvm.dbg.declare(metadata %"class.Json::Reader::Token"* %endArray, metadata !4659, metadata !3818), !dbg !4661
  %call5 = call zeroext i1 @_ZN4Json6Reader9readTokenERNS0_5TokenE(%"class.Json::Reader"* %this1, %"class.Json::Reader::Token"* dereferenceable(24) %endArray), !dbg !4662
  store i1 true, i1* %retval, align 1, !dbg !4663
  br label %return, !dbg !4663

lpad:                                             ; preds = %entry
  %5 = landingpad { i8*, i32 }
          cleanup, !dbg !4664
  %6 = extractvalue { i8*, i32 } %5, 0, !dbg !4664
  store i8* %6, i8** %exn.slot, align 8, !dbg !4664
  %7 = extractvalue { i8*, i32 } %5, 1, !dbg !4664
  store i32 %7, i32* %ehselector.slot, align 4, !dbg !4664
  invoke void @_ZN4Json5ValueD1Ev(%"class.Json::Value"* %agg.tmp)
          to label %invoke.cont3 unwind label %terminate.lpad, !dbg !4665

invoke.cont3:                                     ; preds = %lpad
  br label %eh.resume, !dbg !4667

if.end:                                           ; preds = %invoke.cont
  call void @llvm.dbg.declare(metadata i32* %index, metadata !4669, metadata !3818), !dbg !4670
  store i32 0, i32* %index, align 4, !dbg !4670
  br label %for.cond, !dbg !4671

for.cond:                                         ; preds = %if.end42, %if.end
  call void @llvm.dbg.declare(metadata %"class.Json::Value"** %value, metadata !4672, metadata !3818), !dbg !4676
  %call6 = call dereferenceable(40) %"class.Json::Value"* @_ZN4Json6Reader12currentValueEv(%"class.Json::Reader"* %this1), !dbg !4677
  %8 = load i32, i32* %index, align 4, !dbg !4678
  %inc = add nsw i32 %8, 1, !dbg !4678
  store i32 %inc, i32* %index, align 4, !dbg !4678
  %call7 = call dereferenceable(40) %"class.Json::Value"* @_ZN4Json5ValueixEi(%"class.Json::Value"* %call6, i32 %8), !dbg !4679
  store %"class.Json::Value"* %call7, %"class.Json::Value"** %value, align 8, !dbg !4676
  %nodes_ = getelementptr inbounds %"class.Json::Reader", %"class.Json::Reader"* %this1, i32 0, i32 0, !dbg !4681
  %9 = load %"class.Json::Value"*, %"class.Json::Value"** %value, align 8, !dbg !4682
  store %"class.Json::Value"* %9, %"class.Json::Value"** %ref.tmp, align 8, !dbg !4683
  call void @_ZNSt5stackIPN4Json5ValueESt5dequeIS2_SaIS2_EEE4pushERKS2_(%"class.std::stack"* %nodes_, %"class.Json::Value"** dereferenceable(8) %ref.tmp), !dbg !4681
  call void @llvm.dbg.declare(metadata i8* %ok, metadata !4684, metadata !3818), !dbg !4685
  %call8 = call zeroext i1 @_ZN4Json6Reader9readValueEv(%"class.Json::Reader"* %this1), !dbg !4686
  %frombool = zext i1 %call8 to i8, !dbg !4685
  store i8 %frombool, i8* %ok, align 1, !dbg !4685
  %nodes_9 = getelementptr inbounds %"class.Json::Reader", %"class.Json::Reader"* %this1, i32 0, i32 0, !dbg !4687
  call void @_ZNSt5stackIPN4Json5ValueESt5dequeIS2_SaIS2_EEE3popEv(%"class.std::stack"* %nodes_9), !dbg !4687
  %10 = load i8, i8* %ok, align 1, !dbg !4688
  %tobool = trunc i8 %10 to i1, !dbg !4688
  br i1 %tobool, label %if.end12, label %if.then10, !dbg !4690

if.then10:                                        ; preds = %for.cond
  %call11 = call zeroext i1 @_ZN4Json6Reader16recoverFromErrorENS0_9TokenTypeE(%"class.Json::Reader"* %this1, i32 4), !dbg !4691
  store i1 %call11, i1* %retval, align 1, !dbg !4692
  br label %return, !dbg !4692

if.end12:                                         ; preds = %for.cond
  call void @llvm.dbg.declare(metadata %"class.Json::Reader::Token"* %token, metadata !4693, metadata !3818), !dbg !4694
  %call13 = call zeroext i1 @_ZN4Json6Reader9readTokenERNS0_5TokenE(%"class.Json::Reader"* %this1, %"class.Json::Reader::Token"* dereferenceable(24) %token), !dbg !4695
  %frombool14 = zext i1 %call13 to i8, !dbg !4696
  store i8 %frombool14, i8* %ok, align 1, !dbg !4696
  br label %while.cond, !dbg !4697

while.cond:                                       ; preds = %while.body, %if.end12
  %type_ = getelementptr inbounds %"class.Json::Reader::Token", %"class.Json::Reader::Token"* %token, i32 0, i32 0, !dbg !4698
  %11 = load i32, i32* %type_, align 8, !dbg !4698
  %cmp15 = icmp eq i32 %11, 12, !dbg !4699
  br i1 %cmp15, label %land.rhs, label %land.end, !dbg !4700

land.rhs:                                         ; preds = %while.cond
  %12 = load i8, i8* %ok, align 1, !dbg !4701
  %tobool16 = trunc i8 %12 to i1, !dbg !4701
  br label %land.end

land.end:                                         ; preds = %land.rhs, %while.cond
  %13 = phi i1 [ false, %while.cond ], [ %tobool16, %land.rhs ]
  br i1 %13, label %while.body, label %while.end, !dbg !4703

while.body:                                       ; preds = %land.end
  %call17 = call zeroext i1 @_ZN4Json6Reader9readTokenERNS0_5TokenE(%"class.Json::Reader"* %this1, %"class.Json::Reader::Token"* dereferenceable(24) %token), !dbg !4705
  %frombool18 = zext i1 %call17 to i8, !dbg !4707
  store i8 %frombool18, i8* %ok, align 1, !dbg !4707
  br label %while.cond, !dbg !4708

while.end:                                        ; preds = %land.end
  call void @llvm.dbg.declare(metadata i8* %badTokenType, metadata !4710, metadata !3818), !dbg !4711
  %type_19 = getelementptr inbounds %"class.Json::Reader::Token", %"class.Json::Reader::Token"* %token, i32 0, i32 0, !dbg !4712
  %14 = load i32, i32* %type_19, align 8, !dbg !4712
  %cmp20 = icmp ne i32 %14, 10, !dbg !4713
  br i1 %cmp20, label %land.rhs21, label %land.end24, !dbg !4714

land.rhs21:                                       ; preds = %while.end
  %type_22 = getelementptr inbounds %"class.Json::Reader::Token", %"class.Json::Reader::Token"* %token, i32 0, i32 0, !dbg !4715
  %15 = load i32, i32* %type_22, align 8, !dbg !4715
  %cmp23 = icmp ne i32 %15, 4, !dbg !4716
  br label %land.end24

land.end24:                                       ; preds = %land.rhs21, %while.end
  %16 = phi i1 [ false, %while.end ], [ %cmp23, %land.rhs21 ]
  %frombool25 = zext i1 %16 to i8, !dbg !4711
  store i8 %frombool25, i8* %badTokenType, align 1, !dbg !4711
  %17 = load i8, i8* %ok, align 1, !dbg !4717
  %tobool26 = trunc i8 %17 to i1, !dbg !4717
  br i1 %tobool26, label %lor.lhs.false, label %if.then28, !dbg !4719

lor.lhs.false:                                    ; preds = %land.end24
  %18 = load i8, i8* %badTokenType, align 1, !dbg !4720
  %tobool27 = trunc i8 %18 to i1, !dbg !4720
  br i1 %tobool27, label %if.then28, label %if.end38, !dbg !4722

if.then28:                                        ; preds = %lor.lhs.false, %land.end24
  call void @_ZNSaIcEC1Ev(%"class.std::allocator.8"* %ref.tmp30) #14, !dbg !4723
  invoke void @_ZNSsC1EPKcRKSaIcE(%"class.std::basic_string"* %ref.tmp29, i8* getelementptr inbounds ([40 x i8], [40 x i8]* @.str.13, i32 0, i32 0), %"class.std::allocator.8"* dereferenceable(1) %ref.tmp30)
          to label %invoke.cont32 unwind label %lpad31, !dbg !4723

invoke.cont32:                                    ; preds = %if.then28
  %call35 = invoke zeroext i1 @_ZN4Json6Reader18addErrorAndRecoverERKSsRNS0_5TokenENS0_9TokenTypeE(%"class.Json::Reader"* %this1, %"class.std::basic_string"* dereferenceable(8) %ref.tmp29, %"class.Json::Reader::Token"* dereferenceable(24) %token, i32 4)
          to label %invoke.cont34 unwind label %lpad33, !dbg !4725

invoke.cont34:                                    ; preds = %invoke.cont32
  store i1 %call35, i1* %retval, align 1, !dbg !4726
  invoke void @_ZNSsD1Ev(%"class.std::basic_string"* %ref.tmp29)
          to label %invoke.cont36 unwind label %lpad31, !dbg !4726

invoke.cont36:                                    ; preds = %invoke.cont34
  call void @_ZNSaIcED1Ev(%"class.std::allocator.8"* %ref.tmp30) #14, !dbg !4728
  br label %return, !dbg !4728

lpad31:                                           ; preds = %invoke.cont34, %if.then28
  %19 = landingpad { i8*, i32 }
          cleanup, !dbg !4730
  %20 = extractvalue { i8*, i32 } %19, 0, !dbg !4730
  store i8* %20, i8** %exn.slot, align 8, !dbg !4730
  %21 = extractvalue { i8*, i32 } %19, 1, !dbg !4730
  store i32 %21, i32* %ehselector.slot, align 4, !dbg !4730
  br label %ehcleanup, !dbg !4730

lpad33:                                           ; preds = %invoke.cont32
  %22 = landingpad { i8*, i32 }
          cleanup, !dbg !4731
  %23 = extractvalue { i8*, i32 } %22, 0, !dbg !4731
  store i8* %23, i8** %exn.slot, align 8, !dbg !4731
  %24 = extractvalue { i8*, i32 } %22, 1, !dbg !4731
  store i32 %24, i32* %ehselector.slot, align 4, !dbg !4731
  invoke void @_ZNSsD1Ev(%"class.std::basic_string"* %ref.tmp29)
          to label %invoke.cont37 unwind label %terminate.lpad, !dbg !4732

invoke.cont37:                                    ; preds = %lpad33
  br label %ehcleanup, !dbg !4734

ehcleanup:                                        ; preds = %invoke.cont37, %lpad31
  call void @_ZNSaIcED1Ev(%"class.std::allocator.8"* %ref.tmp30) #14, !dbg !4736
  br label %eh.resume, !dbg !4736

if.end38:                                         ; preds = %lor.lhs.false
  %type_39 = getelementptr inbounds %"class.Json::Reader::Token", %"class.Json::Reader::Token"* %token, i32 0, i32 0, !dbg !4738
  %25 = load i32, i32* %type_39, align 8, !dbg !4738
  %cmp40 = icmp eq i32 %25, 4, !dbg !4740
  br i1 %cmp40, label %if.then41, label %if.end42, !dbg !4741

if.then41:                                        ; preds = %if.end38
  br label %for.end, !dbg !4742

if.end42:                                         ; preds = %if.end38
  br label %for.cond, !dbg !4743

for.end:                                          ; preds = %if.then41
  store i1 true, i1* %retval, align 1, !dbg !4745
  br label %return, !dbg !4745

return:                                           ; preds = %for.end, %invoke.cont36, %if.then10, %if.then
  %26 = load i1, i1* %retval, align 1, !dbg !4746
  ret i1 %26, !dbg !4746

eh.resume:                                        ; preds = %ehcleanup, %invoke.cont3
  %exn = load i8*, i8** %exn.slot, align 8, !dbg !4747
  %sel = load i32, i32* %ehselector.slot, align 4, !dbg !4747
  %lpad.val = insertvalue { i8*, i32 } undef, i8* %exn, 0, !dbg !4747
  %lpad.val43 = insertvalue { i8*, i32 } %lpad.val, i32 %sel, 1, !dbg !4747
  resume { i8*, i32 } %lpad.val43, !dbg !4747

terminate.lpad:                                   ; preds = %lpad33, %lpad
  %27 = landingpad { i8*, i32 }
          catch i8* null, !dbg !4749
  %28 = extractvalue { i8*, i32 } %27, 0, !dbg !4749
  call void @__clang_call_terminate(i8* %28) #13, !dbg !4749
  unreachable, !dbg !4749
}

; Function Attrs: uwtable
define zeroext i1 @_ZN4Json6Reader12decodeNumberERNS0_5TokenE(%"class.Json::Reader"* %this, %"class.Json::Reader::Token"* dereferenceable(24) %token) #2 align 2 personality i8* bitcast (i32 (...)* @__gxx_personality_v0 to i8*) !dbg !2864 {
entry:
  %retval = alloca i1, align 1
  %this.addr = alloca %"class.Json::Reader"*, align 8
  %token.addr = alloca %"class.Json::Reader::Token"*, align 8
  %decoded = alloca %"class.Json::Value", align 8
  %exn.slot = alloca i8*
  %ehselector.slot = alloca i32
  %cleanup.dest.slot = alloca i32
  %agg.tmp = alloca %"class.Json::Value", align 8
  store %"class.Json::Reader"* %this, %"class.Json::Reader"** %this.addr, align 8
  call void @llvm.dbg.declare(metadata %"class.Json::Reader"** %this.addr, metadata !4751, metadata !3818), !dbg !4752
  store %"class.Json::Reader::Token"* %token, %"class.Json::Reader::Token"** %token.addr, align 8
  call void @llvm.dbg.declare(metadata %"class.Json::Reader::Token"** %token.addr, metadata !4753, metadata !3818), !dbg !4754
  %this1 = load %"class.Json::Reader"*, %"class.Json::Reader"** %this.addr, align 8
  call void @llvm.dbg.declare(metadata %"class.Json::Value"* %decoded, metadata !4755, metadata !3818), !dbg !4756
  call void @_ZN4Json5ValueC1ENS_9ValueTypeE(%"class.Json::Value"* %decoded, i32 0), !dbg !4756
  %0 = load %"class.Json::Reader::Token"*, %"class.Json::Reader::Token"** %token.addr, align 8, !dbg !4757
  %call = invoke zeroext i1 @_ZN4Json6Reader12decodeNumberERNS0_5TokenERNS_5ValueE(%"class.Json::Reader"* %this1, %"class.Json::Reader::Token"* dereferenceable(24) %0, %"class.Json::Value"* dereferenceable(40) %decoded)
          to label %invoke.cont unwind label %lpad, !dbg !4759

invoke.cont:                                      ; preds = %entry
  br i1 %call, label %if.end, label %if.then, !dbg !4760

if.then:                                          ; preds = %invoke.cont
  store i1 false, i1* %retval, align 1, !dbg !4762
  store i32 1, i32* %cleanup.dest.slot, align 4
  br label %cleanup, !dbg !4762

lpad:                                             ; preds = %invoke.cont13, %invoke.cont12, %invoke.cont10, %invoke.cont8, %invoke.cont6, %invoke.cont2, %if.end, %entry
  %1 = landingpad { i8*, i32 }
          cleanup, !dbg !4763
  %2 = extractvalue { i8*, i32 } %1, 0, !dbg !4763
  store i8* %2, i8** %exn.slot, align 8, !dbg !4763
  %3 = extractvalue { i8*, i32 } %1, 1, !dbg !4763
  store i32 %3, i32* %ehselector.slot, align 4, !dbg !4763
  br label %ehcleanup, !dbg !4763

if.end:                                           ; preds = %invoke.cont
  %call3 = invoke dereferenceable(40) %"class.Json::Value"* @_ZN4Json6Reader12currentValueEv(%"class.Json::Reader"* %this1)
          to label %invoke.cont2 unwind label %lpad, !dbg !4764

invoke.cont2:                                     ; preds = %if.end
  invoke void @_ZN4Json5ValueC1ERKS0_(%"class.Json::Value"* %agg.tmp, %"class.Json::Value"* dereferenceable(40) %decoded)
          to label %invoke.cont4 unwind label %lpad, !dbg !4765

invoke.cont4:                                     ; preds = %invoke.cont2
  %call7 = invoke dereferenceable(40) %"class.Json::Value"* @_ZN4Json5ValueaSES0_(%"class.Json::Value"* %call3, %"class.Json::Value"* %agg.tmp)
          to label %invoke.cont6 unwind label %lpad5, !dbg !4766

invoke.cont6:                                     ; preds = %invoke.cont4
  invoke void @_ZN4Json5ValueD1Ev(%"class.Json::Value"* %agg.tmp)
          to label %invoke.cont8 unwind label %lpad, !dbg !4768

invoke.cont8:                                     ; preds = %invoke.cont6
  %call11 = invoke dereferenceable(40) %"class.Json::Value"* @_ZN4Json6Reader12currentValueEv(%"class.Json::Reader"* %this1)
          to label %invoke.cont10 unwind label %lpad, !dbg !4770

invoke.cont10:                                    ; preds = %invoke.cont8
  %4 = load %"class.Json::Reader::Token"*, %"class.Json::Reader::Token"** %token.addr, align 8, !dbg !4771
  %start_ = getelementptr inbounds %"class.Json::Reader::Token", %"class.Json::Reader::Token"* %4, i32 0, i32 1, !dbg !4772
  %5 = load i8*, i8** %start_, align 8, !dbg !4772
  %begin_ = getelementptr inbounds %"class.Json::Reader", %"class.Json::Reader"* %this1, i32 0, i32 3, !dbg !4773
  %6 = load i8*, i8** %begin_, align 8, !dbg !4773
  %sub.ptr.lhs.cast = ptrtoint i8* %5 to i64, !dbg !4774
  %sub.ptr.rhs.cast = ptrtoint i8* %6 to i64, !dbg !4774
  %sub.ptr.sub = sub i64 %sub.ptr.lhs.cast, %sub.ptr.rhs.cast, !dbg !4774
  invoke void @_ZN4Json5Value14setOffsetStartEm(%"class.Json::Value"* %call11, i64 %sub.ptr.sub)
          to label %invoke.cont12 unwind label %lpad, !dbg !4775

invoke.cont12:                                    ; preds = %invoke.cont10
  %call14 = invoke dereferenceable(40) %"class.Json::Value"* @_ZN4Json6Reader12currentValueEv(%"class.Json::Reader"* %this1)
          to label %invoke.cont13 unwind label %lpad, !dbg !4776

invoke.cont13:                                    ; preds = %invoke.cont12
  %7 = load %"class.Json::Reader::Token"*, %"class.Json::Reader::Token"** %token.addr, align 8, !dbg !4777
  %end_ = getelementptr inbounds %"class.Json::Reader::Token", %"class.Json::Reader::Token"* %7, i32 0, i32 2, !dbg !4778
  %8 = load i8*, i8** %end_, align 8, !dbg !4778
  %begin_15 = getelementptr inbounds %"class.Json::Reader", %"class.Json::Reader"* %this1, i32 0, i32 3, !dbg !4779
  %9 = load i8*, i8** %begin_15, align 8, !dbg !4779
  %sub.ptr.lhs.cast16 = ptrtoint i8* %8 to i64, !dbg !4780
  %sub.ptr.rhs.cast17 = ptrtoint i8* %9 to i64, !dbg !4780
  %sub.ptr.sub18 = sub i64 %sub.ptr.lhs.cast16, %sub.ptr.rhs.cast17, !dbg !4780
  invoke void @_ZN4Json5Value14setOffsetLimitEm(%"class.Json::Value"* %call14, i64 %sub.ptr.sub18)
          to label %invoke.cont19 unwind label %lpad, !dbg !4781

invoke.cont19:                                    ; preds = %invoke.cont13
  store i1 true, i1* %retval, align 1, !dbg !4782
  store i32 1, i32* %cleanup.dest.slot, align 4
  br label %cleanup, !dbg !4782

lpad5:                                            ; preds = %invoke.cont4
  %10 = landingpad { i8*, i32 }
          cleanup, !dbg !4783
  %11 = extractvalue { i8*, i32 } %10, 0, !dbg !4783
  store i8* %11, i8** %exn.slot, align 8, !dbg !4783
  %12 = extractvalue { i8*, i32 } %10, 1, !dbg !4783
  store i32 %12, i32* %ehselector.slot, align 4, !dbg !4783
  invoke void @_ZN4Json5ValueD1Ev(%"class.Json::Value"* %agg.tmp)
          to label %invoke.cont9 unwind label %terminate.lpad, !dbg !4784

invoke.cont9:                                     ; preds = %lpad5
  br label %ehcleanup, !dbg !4786

cleanup:                                          ; preds = %invoke.cont19, %if.then
  call void @_ZN4Json5ValueD1Ev(%"class.Json::Value"* %decoded), !dbg !4788
  %13 = load i1, i1* %retval, align 1, !dbg !4788
  ret i1 %13, !dbg !4788

ehcleanup:                                        ; preds = %invoke.cont9, %lpad
  invoke void @_ZN4Json5ValueD1Ev(%"class.Json::Value"* %decoded)
          to label %invoke.cont20 unwind label %terminate.lpad, !dbg !4789

invoke.cont20:                                    ; preds = %ehcleanup
  br label %eh.resume, !dbg !4790

eh.resume:                                        ; preds = %invoke.cont20
  %exn = load i8*, i8** %exn.slot, align 8, !dbg !4791
  %sel = load i32, i32* %ehselector.slot, align 4, !dbg !4791
  %lpad.val = insertvalue { i8*, i32 } undef, i8* %exn, 0, !dbg !4791
  %lpad.val21 = insertvalue { i8*, i32 } %lpad.val, i32 %sel, 1, !dbg !4791
  resume { i8*, i32 } %lpad.val21, !dbg !4791

terminate.lpad:                                   ; preds = %ehcleanup, %lpad5
  %14 = landingpad { i8*, i32 }
          catch i8* null, !dbg !4792
  %15 = extractvalue { i8*, i32 } %14, 0, !dbg !4792
  call void @__clang_call_terminate(i8* %15) #13, !dbg !4792
  unreachable, !dbg !4792
}

; Function Attrs: uwtable
define zeroext i1 @_ZN4Json6Reader12decodeStringERNS0_5TokenE(%"class.Json::Reader"* %this, %"class.Json::Reader::Token"* dereferenceable(24) %token) #2 align 2 personality i8* bitcast (i32 (...)* @__gxx_personality_v0 to i8*) !dbg !2868 {
entry:
  %retval = alloca i1, align 1
  %this.addr = alloca %"class.Json::Reader"*, align 8
  %token.addr = alloca %"class.Json::Reader::Token"*, align 8
  %decoded = alloca %"class.std::basic_string", align 8
  %exn.slot = alloca i8*
  %ehselector.slot = alloca i32
  %cleanup.dest.slot = alloca i32
  %agg.tmp = alloca %"class.Json::Value", align 8
  store %"class.Json::Reader"* %this, %"class.Json::Reader"** %this.addr, align 8
  call void @llvm.dbg.declare(metadata %"class.Json::Reader"** %this.addr, metadata !4794, metadata !3818), !dbg !4795
  store %"class.Json::Reader::Token"* %token, %"class.Json::Reader::Token"** %token.addr, align 8
  call void @llvm.dbg.declare(metadata %"class.Json::Reader::Token"** %token.addr, metadata !4796, metadata !3818), !dbg !4797
  %this1 = load %"class.Json::Reader"*, %"class.Json::Reader"** %this.addr, align 8
  call void @llvm.dbg.declare(metadata %"class.std::basic_string"* %decoded, metadata !4798, metadata !3818), !dbg !4799
  call void @_ZNSsC1Ev(%"class.std::basic_string"* %decoded), !dbg !4799
  %0 = load %"class.Json::Reader::Token"*, %"class.Json::Reader::Token"** %token.addr, align 8, !dbg !4800
  %call = invoke zeroext i1 @_ZN4Json6Reader12decodeStringERNS0_5TokenERSs(%"class.Json::Reader"* %this1, %"class.Json::Reader::Token"* dereferenceable(24) %0, %"class.std::basic_string"* dereferenceable(8) %decoded)
          to label %invoke.cont unwind label %lpad, !dbg !4802

invoke.cont:                                      ; preds = %entry
  br i1 %call, label %if.end, label %if.then, !dbg !4803

if.then:                                          ; preds = %invoke.cont
  store i1 false, i1* %retval, align 1, !dbg !4805
  store i32 1, i32* %cleanup.dest.slot, align 4
  br label %cleanup, !dbg !4805

lpad:                                             ; preds = %invoke.cont13, %invoke.cont12, %invoke.cont10, %invoke.cont8, %invoke.cont6, %invoke.cont2, %if.end, %entry
  %1 = landingpad { i8*, i32 }
          cleanup, !dbg !4806
  %2 = extractvalue { i8*, i32 } %1, 0, !dbg !4806
  store i8* %2, i8** %exn.slot, align 8, !dbg !4806
  %3 = extractvalue { i8*, i32 } %1, 1, !dbg !4806
  store i32 %3, i32* %ehselector.slot, align 4, !dbg !4806
  br label %ehcleanup, !dbg !4806

if.end:                                           ; preds = %invoke.cont
  %call3 = invoke dereferenceable(40) %"class.Json::Value"* @_ZN4Json6Reader12currentValueEv(%"class.Json::Reader"* %this1)
          to label %invoke.cont2 unwind label %lpad, !dbg !4807

invoke.cont2:                                     ; preds = %if.end
  invoke void @_ZN4Json5ValueC1ERKSs(%"class.Json::Value"* %agg.tmp, %"class.std::basic_string"* dereferenceable(8) %decoded)
          to label %invoke.cont4 unwind label %lpad, !dbg !4808

invoke.cont4:                                     ; preds = %invoke.cont2
  %call7 = invoke dereferenceable(40) %"class.Json::Value"* @_ZN4Json5ValueaSES0_(%"class.Json::Value"* %call3, %"class.Json::Value"* %agg.tmp)
          to label %invoke.cont6 unwind label %lpad5, !dbg !4809

invoke.cont6:                                     ; preds = %invoke.cont4
  invoke void @_ZN4Json5ValueD1Ev(%"class.Json::Value"* %agg.tmp)
          to label %invoke.cont8 unwind label %lpad, !dbg !4811

invoke.cont8:                                     ; preds = %invoke.cont6
  %call11 = invoke dereferenceable(40) %"class.Json::Value"* @_ZN4Json6Reader12currentValueEv(%"class.Json::Reader"* %this1)
          to label %invoke.cont10 unwind label %lpad, !dbg !4813

invoke.cont10:                                    ; preds = %invoke.cont8
  %4 = load %"class.Json::Reader::Token"*, %"class.Json::Reader::Token"** %token.addr, align 8, !dbg !4814
  %start_ = getelementptr inbounds %"class.Json::Reader::Token", %"class.Json::Reader::Token"* %4, i32 0, i32 1, !dbg !4815
  %5 = load i8*, i8** %start_, align 8, !dbg !4815
  %begin_ = getelementptr inbounds %"class.Json::Reader", %"class.Json::Reader"* %this1, i32 0, i32 3, !dbg !4816
  %6 = load i8*, i8** %begin_, align 8, !dbg !4816
  %sub.ptr.lhs.cast = ptrtoint i8* %5 to i64, !dbg !4817
  %sub.ptr.rhs.cast = ptrtoint i8* %6 to i64, !dbg !4817
  %sub.ptr.sub = sub i64 %sub.ptr.lhs.cast, %sub.ptr.rhs.cast, !dbg !4817
  invoke void @_ZN4Json5Value14setOffsetStartEm(%"class.Json::Value"* %call11, i64 %sub.ptr.sub)
          to label %invoke.cont12 unwind label %lpad, !dbg !4818

invoke.cont12:                                    ; preds = %invoke.cont10
  %call14 = invoke dereferenceable(40) %"class.Json::Value"* @_ZN4Json6Reader12currentValueEv(%"class.Json::Reader"* %this1)
          to label %invoke.cont13 unwind label %lpad, !dbg !4819

invoke.cont13:                                    ; preds = %invoke.cont12
  %7 = load %"class.Json::Reader::Token"*, %"class.Json::Reader::Token"** %token.addr, align 8, !dbg !4820
  %end_ = getelementptr inbounds %"class.Json::Reader::Token", %"class.Json::Reader::Token"* %7, i32 0, i32 2, !dbg !4821
  %8 = load i8*, i8** %end_, align 8, !dbg !4821
  %begin_15 = getelementptr inbounds %"class.Json::Reader", %"class.Json::Reader"* %this1, i32 0, i32 3, !dbg !4822
  %9 = load i8*, i8** %begin_15, align 8, !dbg !4822
  %sub.ptr.lhs.cast16 = ptrtoint i8* %8 to i64, !dbg !4823
  %sub.ptr.rhs.cast17 = ptrtoint i8* %9 to i64, !dbg !4823
  %sub.ptr.sub18 = sub i64 %sub.ptr.lhs.cast16, %sub.ptr.rhs.cast17, !dbg !4823
  invoke void @_ZN4Json5Value14setOffsetLimitEm(%"class.Json::Value"* %call14, i64 %sub.ptr.sub18)
          to label %invoke.cont19 unwind label %lpad, !dbg !4824

invoke.cont19:                                    ; preds = %invoke.cont13
  store i1 true, i1* %retval, align 1, !dbg !4825
  store i32 1, i32* %cleanup.dest.slot, align 4
  br label %cleanup, !dbg !4825

lpad5:                                            ; preds = %invoke.cont4
  %10 = landingpad { i8*, i32 }
          cleanup, !dbg !4826
  %11 = extractvalue { i8*, i32 } %10, 0, !dbg !4826
  store i8* %11, i8** %exn.slot, align 8, !dbg !4826
  %12 = extractvalue { i8*, i32 } %10, 1, !dbg !4826
  store i32 %12, i32* %ehselector.slot, align 4, !dbg !4826
  invoke void @_ZN4Json5ValueD1Ev(%"class.Json::Value"* %agg.tmp)
          to label %invoke.cont9 unwind label %terminate.lpad, !dbg !4827

invoke.cont9:                                     ; preds = %lpad5
  br label %ehcleanup, !dbg !4829

cleanup:                                          ; preds = %invoke.cont19, %if.then
  call void @_ZNSsD1Ev(%"class.std::basic_string"* %decoded), !dbg !4831
  %13 = load i1, i1* %retval, align 1, !dbg !4831
  ret i1 %13, !dbg !4831

ehcleanup:                                        ; preds = %invoke.cont9, %lpad
  invoke void @_ZNSsD1Ev(%"class.std::basic_string"* %decoded)
          to label %invoke.cont20 unwind label %terminate.lpad, !dbg !4832

invoke.cont20:                                    ; preds = %ehcleanup
  br label %eh.resume, !dbg !4833

eh.resume:                                        ; preds = %invoke.cont20
  %exn = load i8*, i8** %exn.slot, align 8, !dbg !4834
  %sel = load i32, i32* %ehselector.slot, align 4, !dbg !4834
  %lpad.val = insertvalue { i8*, i32 } undef, i8* %exn, 0, !dbg !4834
  %lpad.val21 = insertvalue { i8*, i32 } %lpad.val, i32 %sel, 1, !dbg !4834
  resume { i8*, i32 } %lpad.val21, !dbg !4834

terminate.lpad:                                   ; preds = %ehcleanup, %lpad5
  %14 = landingpad { i8*, i32 }
          catch i8* null, !dbg !4835
  %15 = extractvalue { i8*, i32 } %14, 0, !dbg !4835
  call void @__clang_call_terminate(i8* %15) #13, !dbg !4835
  unreachable, !dbg !4835
}

declare dereferenceable(40) %"class.Json::Value"* @_ZN4Json5ValueaSES0_(%"class.Json::Value"*, %"class.Json::Value"*) #4

declare void @_ZN4Json5ValueC1Eb(%"class.Json::Value"*, i1 zeroext) #4

declare void @_ZN4Json5ValueD1Ev(%"class.Json::Value"*) #4

declare void @_ZN4Json5Value14setOffsetStartEm(%"class.Json::Value"*, i64) #4

declare void @_ZN4Json5ValueC1ENS_9ValueTypeE(%"class.Json::Value"*, i32) #4

; Function Attrs: uwtable
define zeroext i1 @_ZN4Json6Reader9readTokenERNS0_5TokenE(%"class.Json::Reader"* %this, %"class.Json::Reader::Token"* dereferenceable(24) %token) #2 align 2 !dbg !2853 {
entry:
  %this.addr = alloca %"class.Json::Reader"*, align 8
  %token.addr = alloca %"class.Json::Reader::Token"*, align 8
  %c = alloca i8, align 1
  %ok = alloca i8, align 1
  store %"class.Json::Reader"* %this, %"class.Json::Reader"** %this.addr, align 8
  call void @llvm.dbg.declare(metadata %"class.Json::Reader"** %this.addr, metadata !4837, metadata !3818), !dbg !4838
  store %"class.Json::Reader::Token"* %token, %"class.Json::Reader::Token"** %token.addr, align 8
  call void @llvm.dbg.declare(metadata %"class.Json::Reader::Token"** %token.addr, metadata !4839, metadata !3818), !dbg !4840
  %this1 = load %"class.Json::Reader"*, %"class.Json::Reader"** %this.addr, align 8
  call void @_ZN4Json6Reader10skipSpacesEv(%"class.Json::Reader"* %this1), !dbg !4841
  %current_ = getelementptr inbounds %"class.Json::Reader", %"class.Json::Reader"* %this1, i32 0, i32 5, !dbg !4842
  %0 = load i8*, i8** %current_, align 8, !dbg !4842
  %1 = load %"class.Json::Reader::Token"*, %"class.Json::Reader::Token"** %token.addr, align 8, !dbg !4843
  %start_ = getelementptr inbounds %"class.Json::Reader::Token", %"class.Json::Reader::Token"* %1, i32 0, i32 1, !dbg !4844
  store i8* %0, i8** %start_, align 8, !dbg !4845
  call void @llvm.dbg.declare(metadata i8* %c, metadata !4846, metadata !3818), !dbg !4847
  %call = call signext i8 @_ZN4Json6Reader11getNextCharEv(%"class.Json::Reader"* %this1), !dbg !4848
  store i8 %call, i8* %c, align 1, !dbg !4847
  call void @llvm.dbg.declare(metadata i8* %ok, metadata !4849, metadata !3818), !dbg !4850
  store i8 1, i8* %ok, align 1, !dbg !4850
  %2 = load i8, i8* %c, align 1, !dbg !4851
  %conv = sext i8 %2 to i32, !dbg !4851
  switch i32 %conv, label %sw.default [
    i32 123, label %sw.bb
    i32 125, label %sw.bb2
    i32 91, label %sw.bb4
    i32 93, label %sw.bb6
    i32 34, label %sw.bb8
    i32 47, label %sw.bb11
    i32 48, label %sw.bb15
    i32 49, label %sw.bb15
    i32 50, label %sw.bb15
    i32 51, label %sw.bb15
    i32 52, label %sw.bb15
    i32 53, label %sw.bb15
    i32 54, label %sw.bb15
    i32 55, label %sw.bb15
    i32 56, label %sw.bb15
    i32 57, label %sw.bb15
    i32 45, label %sw.bb15
    i32 116, label %sw.bb17
    i32 102, label %sw.bb21
    i32 110, label %sw.bb25
    i32 44, label %sw.bb29
    i32 58, label %sw.bb31
    i32 0, label %sw.bb33
  ], !dbg !4852

sw.bb:                                            ; preds = %entry
  %3 = load %"class.Json::Reader::Token"*, %"class.Json::Reader::Token"** %token.addr, align 8, !dbg !4853
  %type_ = getelementptr inbounds %"class.Json::Reader::Token", %"class.Json::Reader::Token"* %3, i32 0, i32 0, !dbg !4855
  store i32 1, i32* %type_, align 8, !dbg !4856
  br label %sw.epilog, !dbg !4857

sw.bb2:                                           ; preds = %entry
  %4 = load %"class.Json::Reader::Token"*, %"class.Json::Reader::Token"** %token.addr, align 8, !dbg !4858
  %type_3 = getelementptr inbounds %"class.Json::Reader::Token", %"class.Json::Reader::Token"* %4, i32 0, i32 0, !dbg !4859
  store i32 2, i32* %type_3, align 8, !dbg !4860
  br label %sw.epilog, !dbg !4861

sw.bb4:                                           ; preds = %entry
  %5 = load %"class.Json::Reader::Token"*, %"class.Json::Reader::Token"** %token.addr, align 8, !dbg !4862
  %type_5 = getelementptr inbounds %"class.Json::Reader::Token", %"class.Json::Reader::Token"* %5, i32 0, i32 0, !dbg !4863
  store i32 3, i32* %type_5, align 8, !dbg !4864
  br label %sw.epilog, !dbg !4865

sw.bb6:                                           ; preds = %entry
  %6 = load %"class.Json::Reader::Token"*, %"class.Json::Reader::Token"** %token.addr, align 8, !dbg !4866
  %type_7 = getelementptr inbounds %"class.Json::Reader::Token", %"class.Json::Reader::Token"* %6, i32 0, i32 0, !dbg !4867
  store i32 4, i32* %type_7, align 8, !dbg !4868
  br label %sw.epilog, !dbg !4869

sw.bb8:                                           ; preds = %entry
  %7 = load %"class.Json::Reader::Token"*, %"class.Json::Reader::Token"** %token.addr, align 8, !dbg !4870
  %type_9 = getelementptr inbounds %"class.Json::Reader::Token", %"class.Json::Reader::Token"* %7, i32 0, i32 0, !dbg !4871
  store i32 5, i32* %type_9, align 8, !dbg !4872
  %call10 = call zeroext i1 @_ZN4Json6Reader10readStringEv(%"class.Json::Reader"* %this1), !dbg !4873
  %frombool = zext i1 %call10 to i8, !dbg !4874
  store i8 %frombool, i8* %ok, align 1, !dbg !4874
  br label %sw.epilog, !dbg !4875

sw.bb11:                                          ; preds = %entry
  %8 = load %"class.Json::Reader::Token"*, %"class.Json::Reader::Token"** %token.addr, align 8, !dbg !4876
  %type_12 = getelementptr inbounds %"class.Json::Reader::Token", %"class.Json::Reader::Token"* %8, i32 0, i32 0, !dbg !4877
  store i32 12, i32* %type_12, align 8, !dbg !4878
  %call13 = call zeroext i1 @_ZN4Json6Reader11readCommentEv(%"class.Json::Reader"* %this1), !dbg !4879
  %frombool14 = zext i1 %call13 to i8, !dbg !4880
  store i8 %frombool14, i8* %ok, align 1, !dbg !4880
  br label %sw.epilog, !dbg !4881

sw.bb15:                                          ; preds = %entry, %entry, %entry, %entry, %entry, %entry, %entry, %entry, %entry, %entry, %entry
  %9 = load %"class.Json::Reader::Token"*, %"class.Json::Reader::Token"** %token.addr, align 8, !dbg !4882
  %type_16 = getelementptr inbounds %"class.Json::Reader::Token", %"class.Json::Reader::Token"* %9, i32 0, i32 0, !dbg !4883
  store i32 6, i32* %type_16, align 8, !dbg !4884
  call void @_ZN4Json6Reader10readNumberEv(%"class.Json::Reader"* %this1), !dbg !4885
  br label %sw.epilog, !dbg !4886

sw.bb17:                                          ; preds = %entry
  %10 = load %"class.Json::Reader::Token"*, %"class.Json::Reader::Token"** %token.addr, align 8, !dbg !4887
  %type_18 = getelementptr inbounds %"class.Json::Reader::Token", %"class.Json::Reader::Token"* %10, i32 0, i32 0, !dbg !4888
  store i32 7, i32* %type_18, align 8, !dbg !4889
  %call19 = call zeroext i1 @_ZN4Json6Reader5matchEPKci(%"class.Json::Reader"* %this1, i8* getelementptr inbounds ([4 x i8], [4 x i8]* @.str.4, i32 0, i32 0), i32 3), !dbg !4890
  %frombool20 = zext i1 %call19 to i8, !dbg !4891
  store i8 %frombool20, i8* %ok, align 1, !dbg !4891
  br label %sw.epilog, !dbg !4892

sw.bb21:                                          ; preds = %entry
  %11 = load %"class.Json::Reader::Token"*, %"class.Json::Reader::Token"** %token.addr, align 8, !dbg !4893
  %type_22 = getelementptr inbounds %"class.Json::Reader::Token", %"class.Json::Reader::Token"* %11, i32 0, i32 0, !dbg !4894
  store i32 8, i32* %type_22, align 8, !dbg !4895
  %call23 = call zeroext i1 @_ZN4Json6Reader5matchEPKci(%"class.Json::Reader"* %this1, i8* getelementptr inbounds ([5 x i8], [5 x i8]* @.str.5, i32 0, i32 0), i32 4), !dbg !4896
  %frombool24 = zext i1 %call23 to i8, !dbg !4897
  store i8 %frombool24, i8* %ok, align 1, !dbg !4897
  br label %sw.epilog, !dbg !4898

sw.bb25:                                          ; preds = %entry
  %12 = load %"class.Json::Reader::Token"*, %"class.Json::Reader::Token"** %token.addr, align 8, !dbg !4899
  %type_26 = getelementptr inbounds %"class.Json::Reader::Token", %"class.Json::Reader::Token"* %12, i32 0, i32 0, !dbg !4900
  store i32 9, i32* %type_26, align 8, !dbg !4901
  %call27 = call zeroext i1 @_ZN4Json6Reader5matchEPKci(%"class.Json::Reader"* %this1, i8* getelementptr inbounds ([4 x i8], [4 x i8]* @.str.6, i32 0, i32 0), i32 3), !dbg !4902
  %frombool28 = zext i1 %call27 to i8, !dbg !4903
  store i8 %frombool28, i8* %ok, align 1, !dbg !4903
  br label %sw.epilog, !dbg !4904

sw.bb29:                                          ; preds = %entry
  %13 = load %"class.Json::Reader::Token"*, %"class.Json::Reader::Token"** %token.addr, align 8, !dbg !4905
  %type_30 = getelementptr inbounds %"class.Json::Reader::Token", %"class.Json::Reader::Token"* %13, i32 0, i32 0, !dbg !4906
  store i32 10, i32* %type_30, align 8, !dbg !4907
  br label %sw.epilog, !dbg !4908

sw.bb31:                                          ; preds = %entry
  %14 = load %"class.Json::Reader::Token"*, %"class.Json::Reader::Token"** %token.addr, align 8, !dbg !4909
  %type_32 = getelementptr inbounds %"class.Json::Reader::Token", %"class.Json::Reader::Token"* %14, i32 0, i32 0, !dbg !4910
  store i32 11, i32* %type_32, align 8, !dbg !4911
  br label %sw.epilog, !dbg !4912

sw.bb33:                                          ; preds = %entry
  %15 = load %"class.Json::Reader::Token"*, %"class.Json::Reader::Token"** %token.addr, align 8, !dbg !4913
  %type_34 = getelementptr inbounds %"class.Json::Reader::Token", %"class.Json::Reader::Token"* %15, i32 0, i32 0, !dbg !4914
  store i32 0, i32* %type_34, align 8, !dbg !4915
  br label %sw.epilog, !dbg !4916

sw.default:                                       ; preds = %entry
  store i8 0, i8* %ok, align 1, !dbg !4917
  br label %sw.epilog, !dbg !4918

sw.epilog:                                        ; preds = %sw.default, %sw.bb33, %sw.bb31, %sw.bb29, %sw.bb25, %sw.bb21, %sw.bb17, %sw.bb15, %sw.bb11, %sw.bb8, %sw.bb6, %sw.bb4, %sw.bb2, %sw.bb
  %16 = load i8, i8* %ok, align 1, !dbg !4919
  %tobool = trunc i8 %16 to i1, !dbg !4919
  br i1 %tobool, label %if.end, label %if.then, !dbg !4921

if.then:                                          ; preds = %sw.epilog
  %17 = load %"class.Json::Reader::Token"*, %"class.Json::Reader::Token"** %token.addr, align 8, !dbg !4922
  %type_35 = getelementptr inbounds %"class.Json::Reader::Token", %"class.Json::Reader::Token"* %17, i32 0, i32 0, !dbg !4923
  store i32 13, i32* %type_35, align 8, !dbg !4924
  br label %if.end, !dbg !4922

if.end:                                           ; preds = %if.then, %sw.epilog
  %current_36 = getelementptr inbounds %"class.Json::Reader", %"class.Json::Reader"* %this1, i32 0, i32 5, !dbg !4925
  %18 = load i8*, i8** %current_36, align 8, !dbg !4925
  %19 = load %"class.Json::Reader::Token"*, %"class.Json::Reader::Token"** %token.addr, align 8, !dbg !4926
  %end_ = getelementptr inbounds %"class.Json::Reader::Token", %"class.Json::Reader::Token"* %19, i32 0, i32 2, !dbg !4927
  store i8* %18, i8** %end_, align 8, !dbg !4928
  ret i1 true, !dbg !4929
}

; Function Attrs: uwtable
define zeroext i1 @_ZN4Json6Reader11expectTokenENS0_9TokenTypeERNS0_5TokenEPKc(%"class.Json::Reader"* %this, i32 %type, %"class.Json::Reader::Token"* dereferenceable(24) %token, i8* %message) #2 align 2 personality i8* bitcast (i32 (...)* @__gxx_personality_v0 to i8*) !dbg !2852 {
entry:
  %retval = alloca i1, align 1
  %this.addr = alloca %"class.Json::Reader"*, align 8
  %type.addr = alloca i32, align 4
  %token.addr = alloca %"class.Json::Reader::Token"*, align 8
  %message.addr = alloca i8*, align 8
  %ref.tmp = alloca %"class.std::basic_string", align 8
  %ref.tmp2 = alloca %"class.std::allocator.8", align 1
  %exn.slot = alloca i8*
  %ehselector.slot = alloca i32
  store %"class.Json::Reader"* %this, %"class.Json::Reader"** %this.addr, align 8
  call void @llvm.dbg.declare(metadata %"class.Json::Reader"** %this.addr, metadata !4930, metadata !3818), !dbg !4931
  store i32 %type, i32* %type.addr, align 4
  call void @llvm.dbg.declare(metadata i32* %type.addr, metadata !4932, metadata !3818), !dbg !4933
  store %"class.Json::Reader::Token"* %token, %"class.Json::Reader::Token"** %token.addr, align 8
  call void @llvm.dbg.declare(metadata %"class.Json::Reader::Token"** %token.addr, metadata !4934, metadata !3818), !dbg !4935
  store i8* %message, i8** %message.addr, align 8
  call void @llvm.dbg.declare(metadata i8** %message.addr, metadata !4936, metadata !3818), !dbg !4937
  %this1 = load %"class.Json::Reader"*, %"class.Json::Reader"** %this.addr, align 8
  %0 = load %"class.Json::Reader::Token"*, %"class.Json::Reader::Token"** %token.addr, align 8, !dbg !4938
  %call = call zeroext i1 @_ZN4Json6Reader9readTokenERNS0_5TokenE(%"class.Json::Reader"* %this1, %"class.Json::Reader::Token"* dereferenceable(24) %0), !dbg !4939
  %1 = load %"class.Json::Reader::Token"*, %"class.Json::Reader::Token"** %token.addr, align 8, !dbg !4940
  %type_ = getelementptr inbounds %"class.Json::Reader::Token", %"class.Json::Reader::Token"* %1, i32 0, i32 0, !dbg !4942
  %2 = load i32, i32* %type_, align 8, !dbg !4942
  %3 = load i32, i32* %type.addr, align 4, !dbg !4943
  %cmp = icmp ne i32 %2, %3, !dbg !4944
  br i1 %cmp, label %if.then, label %if.end, !dbg !4945

if.then:                                          ; preds = %entry
  %4 = load i8*, i8** %message.addr, align 8, !dbg !4946
  call void @_ZNSaIcEC1Ev(%"class.std::allocator.8"* %ref.tmp2) #14, !dbg !4946
  invoke void @_ZNSsC1EPKcRKSaIcE(%"class.std::basic_string"* %ref.tmp, i8* %4, %"class.std::allocator.8"* dereferenceable(1) %ref.tmp2)
          to label %invoke.cont unwind label %lpad, !dbg !4946

invoke.cont:                                      ; preds = %if.then
  %5 = load %"class.Json::Reader::Token"*, %"class.Json::Reader::Token"** %token.addr, align 8, !dbg !4947
  %call5 = invoke zeroext i1 @_ZN4Json6Reader8addErrorERKSsRNS0_5TokenEPKc(%"class.Json::Reader"* %this1, %"class.std::basic_string"* dereferenceable(8) %ref.tmp, %"class.Json::Reader::Token"* dereferenceable(24) %5, i8* null)
          to label %invoke.cont4 unwind label %lpad3, !dbg !4949

invoke.cont4:                                     ; preds = %invoke.cont
  store i1 %call5, i1* %retval, align 1, !dbg !4950
  invoke void @_ZNSsD1Ev(%"class.std::basic_string"* %ref.tmp)
          to label %invoke.cont6 unwind label %lpad, !dbg !4950

invoke.cont6:                                     ; preds = %invoke.cont4
  call void @_ZNSaIcED1Ev(%"class.std::allocator.8"* %ref.tmp2) #14, !dbg !4952
  br label %return, !dbg !4952

lpad:                                             ; preds = %invoke.cont4, %if.then
  %6 = landingpad { i8*, i32 }
          cleanup, !dbg !4954
  %7 = extractvalue { i8*, i32 } %6, 0, !dbg !4954
  store i8* %7, i8** %exn.slot, align 8, !dbg !4954
  %8 = extractvalue { i8*, i32 } %6, 1, !dbg !4954
  store i32 %8, i32* %ehselector.slot, align 4, !dbg !4954
  br label %ehcleanup, !dbg !4954

lpad3:                                            ; preds = %invoke.cont
  %9 = landingpad { i8*, i32 }
          cleanup, !dbg !4955
  %10 = extractvalue { i8*, i32 } %9, 0, !dbg !4955
  store i8* %10, i8** %exn.slot, align 8, !dbg !4955
  %11 = extractvalue { i8*, i32 } %9, 1, !dbg !4955
  store i32 %11, i32* %ehselector.slot, align 4, !dbg !4955
  invoke void @_ZNSsD1Ev(%"class.std::basic_string"* %ref.tmp)
          to label %invoke.cont7 unwind label %terminate.lpad, !dbg !4956

invoke.cont7:                                     ; preds = %lpad3
  br label %ehcleanup, !dbg !4958

ehcleanup:                                        ; preds = %invoke.cont7, %lpad
  call void @_ZNSaIcED1Ev(%"class.std::allocator.8"* %ref.tmp2) #14, !dbg !4960
  br label %eh.resume, !dbg !4960

if.end:                                           ; preds = %entry
  store i1 true, i1* %retval, align 1, !dbg !4962
  br label %return, !dbg !4962

return:                                           ; preds = %if.end, %invoke.cont6
  %12 = load i1, i1* %retval, align 1, !dbg !4963
  ret i1 %12, !dbg !4963

eh.resume:                                        ; preds = %ehcleanup
  %exn = load i8*, i8** %exn.slot, align 8, !dbg !4965
  %sel = load i32, i32* %ehselector.slot, align 4, !dbg !4965
  %lpad.val = insertvalue { i8*, i32 } undef, i8* %exn, 0, !dbg !4965
  %lpad.val8 = insertvalue { i8*, i32 } %lpad.val, i32 %sel, 1, !dbg !4965
  resume { i8*, i32 } %lpad.val8, !dbg !4965

terminate.lpad:                                   ; preds = %lpad3
  %13 = landingpad { i8*, i32 }
          catch i8* null, !dbg !4967
  %14 = extractvalue { i8*, i32 } %13, 0, !dbg !4967
  call void @__clang_call_terminate(i8* %14) #13, !dbg !4967
  unreachable, !dbg !4967
}

; Function Attrs: nounwind uwtable
define void @_ZN4Json6Reader10skipSpacesEv(%"class.Json::Reader"* %this) #0 align 2 !dbg !2854 {
entry:
  %this.addr = alloca %"class.Json::Reader"*, align 8
  %c = alloca i8, align 1
  store %"class.Json::Reader"* %this, %"class.Json::Reader"** %this.addr, align 8
  call void @llvm.dbg.declare(metadata %"class.Json::Reader"** %this.addr, metadata !4969, metadata !3818), !dbg !4970
  %this1 = load %"class.Json::Reader"*, %"class.Json::Reader"** %this.addr, align 8
  br label %while.cond, !dbg !4971

while.cond:                                       ; preds = %if.end, %entry
  %current_ = getelementptr inbounds %"class.Json::Reader", %"class.Json::Reader"* %this1, i32 0, i32 5, !dbg !4972
  %0 = load i8*, i8** %current_, align 8, !dbg !4972
  %end_ = getelementptr inbounds %"class.Json::Reader", %"class.Json::Reader"* %this1, i32 0, i32 4, !dbg !4974
  %1 = load i8*, i8** %end_, align 8, !dbg !4974
  %cmp = icmp ne i8* %0, %1, !dbg !4975
  br i1 %cmp, label %while.body, label %while.end, !dbg !4976

while.body:                                       ; preds = %while.cond
  call void @llvm.dbg.declare(metadata i8* %c, metadata !4977, metadata !3818), !dbg !4979
  %current_2 = getelementptr inbounds %"class.Json::Reader", %"class.Json::Reader"* %this1, i32 0, i32 5, !dbg !4980
  %2 = load i8*, i8** %current_2, align 8, !dbg !4980
  %3 = load i8, i8* %2, align 1, !dbg !4981
  store i8 %3, i8* %c, align 1, !dbg !4979
  %4 = load i8, i8* %c, align 1, !dbg !4982
  %conv = sext i8 %4 to i32, !dbg !4982
  %cmp3 = icmp eq i32 %conv, 32, !dbg !4984
  br i1 %cmp3, label %if.then, label %lor.lhs.false, !dbg !4985

lor.lhs.false:                                    ; preds = %while.body
  %5 = load i8, i8* %c, align 1, !dbg !4986
  %conv4 = sext i8 %5 to i32, !dbg !4986
  %cmp5 = icmp eq i32 %conv4, 9, !dbg !4988
  br i1 %cmp5, label %if.then, label %lor.lhs.false6, !dbg !4989

lor.lhs.false6:                                   ; preds = %lor.lhs.false
  %6 = load i8, i8* %c, align 1, !dbg !4990
  %conv7 = sext i8 %6 to i32, !dbg !4990
  %cmp8 = icmp eq i32 %conv7, 13, !dbg !4992
  br i1 %cmp8, label %if.then, label %lor.lhs.false9, !dbg !4993

lor.lhs.false9:                                   ; preds = %lor.lhs.false6
  %7 = load i8, i8* %c, align 1, !dbg !4994
  %conv10 = sext i8 %7 to i32, !dbg !4994
  %cmp11 = icmp eq i32 %conv10, 10, !dbg !4996
  br i1 %cmp11, label %if.then, label %if.else, !dbg !4997

if.then:                                          ; preds = %lor.lhs.false9, %lor.lhs.false6, %lor.lhs.false, %while.body
  %current_12 = getelementptr inbounds %"class.Json::Reader", %"class.Json::Reader"* %this1, i32 0, i32 5, !dbg !4998
  %8 = load i8*, i8** %current_12, align 8, !dbg !4999
  %incdec.ptr = getelementptr inbounds i8, i8* %8, i32 1, !dbg !4999
  store i8* %incdec.ptr, i8** %current_12, align 8, !dbg !4999
  br label %if.end, !dbg !4999

if.else:                                          ; preds = %lor.lhs.false9
  br label %while.end, !dbg !5000

if.end:                                           ; preds = %if.then
  br label %while.cond, !dbg !5001

while.end:                                        ; preds = %if.else, %while.cond
  ret void, !dbg !5003
}

; Function Attrs: nounwind uwtable
define signext i8 @_ZN4Json6Reader11getNextCharEv(%"class.Json::Reader"* %this) #0 align 2 !dbg !2876 {
entry:
  %retval = alloca i8, align 1
  %this.addr = alloca %"class.Json::Reader"*, align 8
  store %"class.Json::Reader"* %this, %"class.Json::Reader"** %this.addr, align 8
  call void @llvm.dbg.declare(metadata %"class.Json::Reader"** %this.addr, metadata !5004, metadata !3818), !dbg !5005
  %this1 = load %"class.Json::Reader"*, %"class.Json::Reader"** %this.addr, align 8
  %current_ = getelementptr inbounds %"class.Json::Reader", %"class.Json::Reader"* %this1, i32 0, i32 5, !dbg !5006
  %0 = load i8*, i8** %current_, align 8, !dbg !5006
  %end_ = getelementptr inbounds %"class.Json::Reader", %"class.Json::Reader"* %this1, i32 0, i32 4, !dbg !5008
  %1 = load i8*, i8** %end_, align 8, !dbg !5008
  %cmp = icmp eq i8* %0, %1, !dbg !5009
  br i1 %cmp, label %if.then, label %if.end, !dbg !5010

if.then:                                          ; preds = %entry
  store i8 0, i8* %retval, align 1, !dbg !5011
  br label %return, !dbg !5011

if.end:                                           ; preds = %entry
  %current_2 = getelementptr inbounds %"class.Json::Reader", %"class.Json::Reader"* %this1, i32 0, i32 5, !dbg !5012
  %2 = load i8*, i8** %current_2, align 8, !dbg !5013
  %incdec.ptr = getelementptr inbounds i8, i8* %2, i32 1, !dbg !5013
  store i8* %incdec.ptr, i8** %current_2, align 8, !dbg !5013
  %3 = load i8, i8* %2, align 1, !dbg !5014
  store i8 %3, i8* %retval, align 1, !dbg !5015
  br label %return, !dbg !5015

return:                                           ; preds = %if.end, %if.then
  %4 = load i8, i8* %retval, align 1, !dbg !5016
  ret i8 %4, !dbg !5016
}

; Function Attrs: uwtable
define zeroext i1 @_ZN4Json6Reader10readStringEv(%"class.Json::Reader"* %this) #2 align 2 !dbg !2861 {
entry:
  %this.addr = alloca %"class.Json::Reader"*, align 8
  %c = alloca i8, align 1
  store %"class.Json::Reader"* %this, %"class.Json::Reader"** %this.addr, align 8
  call void @llvm.dbg.declare(metadata %"class.Json::Reader"** %this.addr, metadata !5017, metadata !3818), !dbg !5018
  %this1 = load %"class.Json::Reader"*, %"class.Json::Reader"** %this.addr, align 8
  call void @llvm.dbg.declare(metadata i8* %c, metadata !5019, metadata !3818), !dbg !5020
  store i8 0, i8* %c, align 1, !dbg !5020
  br label %while.cond, !dbg !5021

while.cond:                                       ; preds = %if.end7, %entry
  %current_ = getelementptr inbounds %"class.Json::Reader", %"class.Json::Reader"* %this1, i32 0, i32 5, !dbg !5022
  %0 = load i8*, i8** %current_, align 8, !dbg !5022
  %end_ = getelementptr inbounds %"class.Json::Reader", %"class.Json::Reader"* %this1, i32 0, i32 4, !dbg !5024
  %1 = load i8*, i8** %end_, align 8, !dbg !5024
  %cmp = icmp ne i8* %0, %1, !dbg !5025
  br i1 %cmp, label %while.body, label %while.end, !dbg !5026

while.body:                                       ; preds = %while.cond
  %call = call signext i8 @_ZN4Json6Reader11getNextCharEv(%"class.Json::Reader"* %this1), !dbg !5027
  store i8 %call, i8* %c, align 1, !dbg !5029
  %2 = load i8, i8* %c, align 1, !dbg !5030
  %conv = sext i8 %2 to i32, !dbg !5030
  %cmp2 = icmp eq i32 %conv, 92, !dbg !5032
  br i1 %cmp2, label %if.then, label %if.else, !dbg !5033

if.then:                                          ; preds = %while.body
  %call3 = call signext i8 @_ZN4Json6Reader11getNextCharEv(%"class.Json::Reader"* %this1), !dbg !5034
  br label %if.end7, !dbg !5034

if.else:                                          ; preds = %while.body
  %3 = load i8, i8* %c, align 1, !dbg !5035
  %conv4 = sext i8 %3 to i32, !dbg !5035
  %cmp5 = icmp eq i32 %conv4, 34, !dbg !5037
  br i1 %cmp5, label %if.then6, label %if.end, !dbg !5038

if.then6:                                         ; preds = %if.else
  br label %while.end, !dbg !5039

if.end:                                           ; preds = %if.else
  br label %if.end7

if.end7:                                          ; preds = %if.end, %if.then
  br label %while.cond, !dbg !5040

while.end:                                        ; preds = %if.then6, %while.cond
  %4 = load i8, i8* %c, align 1, !dbg !5042
  %conv8 = sext i8 %4 to i32, !dbg !5042
  %cmp9 = icmp eq i32 %conv8, 34, !dbg !5043
  ret i1 %cmp9, !dbg !5044
}

; Function Attrs: uwtable
define zeroext i1 @_ZN4Json6Reader11readCommentEv(%"class.Json::Reader"* %this) #2 align 2 !dbg !2856 {
entry:
  %retval = alloca i1, align 1
  %this.addr = alloca %"class.Json::Reader"*, align 8
  %commentBegin = alloca i8*, align 8
  %c = alloca i8, align 1
  %successful = alloca i8, align 1
  %placement = alloca i32, align 4
  store %"class.Json::Reader"* %this, %"class.Json::Reader"** %this.addr, align 8
  call void @llvm.dbg.declare(metadata %"class.Json::Reader"** %this.addr, metadata !5045, metadata !3818), !dbg !5046
  %this1 = load %"class.Json::Reader"*, %"class.Json::Reader"** %this.addr, align 8
  call void @llvm.dbg.declare(metadata i8** %commentBegin, metadata !5047, metadata !3818), !dbg !5048
  %current_ = getelementptr inbounds %"class.Json::Reader", %"class.Json::Reader"* %this1, i32 0, i32 5, !dbg !5049
  %0 = load i8*, i8** %current_, align 8, !dbg !5049
  %add.ptr = getelementptr inbounds i8, i8* %0, i64 -1, !dbg !5050
  store i8* %add.ptr, i8** %commentBegin, align 8, !dbg !5048
  call void @llvm.dbg.declare(metadata i8* %c, metadata !5051, metadata !3818), !dbg !5052
  %call = call signext i8 @_ZN4Json6Reader11getNextCharEv(%"class.Json::Reader"* %this1), !dbg !5053
  store i8 %call, i8* %c, align 1, !dbg !5052
  call void @llvm.dbg.declare(metadata i8* %successful, metadata !5054, metadata !3818), !dbg !5055
  store i8 0, i8* %successful, align 1, !dbg !5055
  %1 = load i8, i8* %c, align 1, !dbg !5056
  %conv = sext i8 %1 to i32, !dbg !5056
  %cmp = icmp eq i32 %conv, 42, !dbg !5058
  br i1 %cmp, label %if.then, label %if.else, !dbg !5059

if.then:                                          ; preds = %entry
  %call2 = call zeroext i1 @_ZN4Json6Reader17readCStyleCommentEv(%"class.Json::Reader"* %this1), !dbg !5060
  %frombool = zext i1 %call2 to i8, !dbg !5061
  store i8 %frombool, i8* %successful, align 1, !dbg !5061
  br label %if.end8, !dbg !5062

if.else:                                          ; preds = %entry
  %2 = load i8, i8* %c, align 1, !dbg !5063
  %conv3 = sext i8 %2 to i32, !dbg !5063
  %cmp4 = icmp eq i32 %conv3, 47, !dbg !5065
  br i1 %cmp4, label %if.then5, label %if.end, !dbg !5066

if.then5:                                         ; preds = %if.else
  %call6 = call zeroext i1 @_ZN4Json6Reader19readCppStyleCommentEv(%"class.Json::Reader"* %this1), !dbg !5067
  %frombool7 = zext i1 %call6 to i8, !dbg !5068
  store i8 %frombool7, i8* %successful, align 1, !dbg !5068
  br label %if.end, !dbg !5069

if.end:                                           ; preds = %if.then5, %if.else
  br label %if.end8

if.end8:                                          ; preds = %if.end, %if.then
  %3 = load i8, i8* %successful, align 1, !dbg !5070
  %tobool = trunc i8 %3 to i1, !dbg !5070
  br i1 %tobool, label %if.end10, label %if.then9, !dbg !5072

if.then9:                                         ; preds = %if.end8
  store i1 false, i1* %retval, align 1, !dbg !5073
  br label %return, !dbg !5073

if.end10:                                         ; preds = %if.end8
  %collectComments_ = getelementptr inbounds %"class.Json::Reader", %"class.Json::Reader"* %this1, i32 0, i32 10, !dbg !5074
  %4 = load i8, i8* %collectComments_, align 4, !dbg !5074
  %tobool11 = trunc i8 %4 to i1, !dbg !5074
  br i1 %tobool11, label %if.then12, label %if.end25, !dbg !5076

if.then12:                                        ; preds = %if.end10
  call void @llvm.dbg.declare(metadata i32* %placement, metadata !5077, metadata !3818), !dbg !5079
  store i32 0, i32* %placement, align 4, !dbg !5079
  %lastValueEnd_ = getelementptr inbounds %"class.Json::Reader", %"class.Json::Reader"* %this1, i32 0, i32 6, !dbg !5080
  %5 = load i8*, i8** %lastValueEnd_, align 8, !dbg !5080
  %tobool13 = icmp ne i8* %5, null, !dbg !5080
  br i1 %tobool13, label %land.lhs.true, label %if.end23, !dbg !5082

land.lhs.true:                                    ; preds = %if.then12
  %lastValueEnd_14 = getelementptr inbounds %"class.Json::Reader", %"class.Json::Reader"* %this1, i32 0, i32 6, !dbg !5083
  %6 = load i8*, i8** %lastValueEnd_14, align 8, !dbg !5083
  %7 = load i8*, i8** %commentBegin, align 8, !dbg !5085
  %call15 = call zeroext i1 @_ZN4JsonL15containsNewLineEPKcS1_(i8* %6, i8* %7), !dbg !5086
  br i1 %call15, label %if.end23, label %if.then16, !dbg !5087

if.then16:                                        ; preds = %land.lhs.true
  %8 = load i8, i8* %c, align 1, !dbg !5088
  %conv17 = sext i8 %8 to i32, !dbg !5088
  %cmp18 = icmp ne i32 %conv17, 42, !dbg !5091
  br i1 %cmp18, label %if.then21, label %lor.lhs.false, !dbg !5092

lor.lhs.false:                                    ; preds = %if.then16
  %9 = load i8*, i8** %commentBegin, align 8, !dbg !5093
  %current_19 = getelementptr inbounds %"class.Json::Reader", %"class.Json::Reader"* %this1, i32 0, i32 5, !dbg !5095
  %10 = load i8*, i8** %current_19, align 8, !dbg !5095
  %call20 = call zeroext i1 @_ZN4JsonL15containsNewLineEPKcS1_(i8* %9, i8* %10), !dbg !5096
  br i1 %call20, label %if.end22, label %if.then21, !dbg !5097

if.then21:                                        ; preds = %lor.lhs.false, %if.then16
  store i32 1, i32* %placement, align 4, !dbg !5098
  br label %if.end22, !dbg !5099

if.end22:                                         ; preds = %if.then21, %lor.lhs.false
  br label %if.end23, !dbg !5100

if.end23:                                         ; preds = %if.end22, %land.lhs.true, %if.then12
  %11 = load i8*, i8** %commentBegin, align 8, !dbg !5101
  %current_24 = getelementptr inbounds %"class.Json::Reader", %"class.Json::Reader"* %this1, i32 0, i32 5, !dbg !5102
  %12 = load i8*, i8** %current_24, align 8, !dbg !5102
  %13 = load i32, i32* %placement, align 4, !dbg !5103
  call void @_ZN4Json6Reader10addCommentEPKcS2_NS_16CommentPlacementE(%"class.Json::Reader"* %this1, i8* %11, i8* %12, i32 %13), !dbg !5104
  br label %if.end25, !dbg !5105

if.end25:                                         ; preds = %if.end23, %if.end10
  store i1 true, i1* %retval, align 1, !dbg !5106
  br label %return, !dbg !5106

return:                                           ; preds = %if.end25, %if.then9
  %14 = load i1, i1* %retval, align 1, !dbg !5107
  ret i1 %14, !dbg !5107
}

; Function Attrs: uwtable
define void @_ZN4Json6Reader10readNumberEv(%"class.Json::Reader"* %this) #2 align 2 !dbg !2860 {
entry:
  %this.addr = alloca %"class.Json::Reader"*, align 8
  store %"class.Json::Reader"* %this, %"class.Json::Reader"** %this.addr, align 8
  call void @llvm.dbg.declare(metadata %"class.Json::Reader"** %this.addr, metadata !5108, metadata !3818), !dbg !5109
  %this1 = load %"class.Json::Reader"*, %"class.Json::Reader"** %this.addr, align 8
  br label %while.cond, !dbg !5110

while.cond:                                       ; preds = %if.end, %entry
  %current_ = getelementptr inbounds %"class.Json::Reader", %"class.Json::Reader"* %this1, i32 0, i32 5, !dbg !5111
  %0 = load i8*, i8** %current_, align 8, !dbg !5111
  %end_ = getelementptr inbounds %"class.Json::Reader", %"class.Json::Reader"* %this1, i32 0, i32 4, !dbg !5113
  %1 = load i8*, i8** %end_, align 8, !dbg !5113
  %cmp = icmp ne i8* %0, %1, !dbg !5114
  br i1 %cmp, label %while.body, label %while.end, !dbg !5115

while.body:                                       ; preds = %while.cond
  %current_2 = getelementptr inbounds %"class.Json::Reader", %"class.Json::Reader"* %this1, i32 0, i32 5, !dbg !5116
  %2 = load i8*, i8** %current_2, align 8, !dbg !5116
  %3 = load i8, i8* %2, align 1, !dbg !5119
  %conv = sext i8 %3 to i32, !dbg !5119
  %cmp3 = icmp sge i32 %conv, 48, !dbg !5120
  br i1 %cmp3, label %land.lhs.true, label %land.lhs.true7, !dbg !5121

land.lhs.true:                                    ; preds = %while.body
  %current_4 = getelementptr inbounds %"class.Json::Reader", %"class.Json::Reader"* %this1, i32 0, i32 5, !dbg !5122
  %4 = load i8*, i8** %current_4, align 8, !dbg !5122
  %5 = load i8, i8* %4, align 1, !dbg !5124
  %conv5 = sext i8 %5 to i32, !dbg !5124
  %cmp6 = icmp sle i32 %conv5, 57, !dbg !5125
  br i1 %cmp6, label %if.end, label %land.lhs.true7, !dbg !5126

land.lhs.true7:                                   ; preds = %land.lhs.true, %while.body
  %current_8 = getelementptr inbounds %"class.Json::Reader", %"class.Json::Reader"* %this1, i32 0, i32 5, !dbg !5127
  %6 = load i8*, i8** %current_8, align 8, !dbg !5127
  %7 = load i8, i8* %6, align 1, !dbg !5128
  %call = call zeroext i1 @_ZN4JsonL2inEcccccc(i8 signext %7, i8 signext 46, i8 signext 101, i8 signext 69, i8 signext 43, i8 signext 45), !dbg !5129
  br i1 %call, label %if.end, label %if.then, !dbg !5130

if.then:                                          ; preds = %land.lhs.true7
  br label %while.end, !dbg !5132

if.end:                                           ; preds = %land.lhs.true7, %land.lhs.true
  %current_9 = getelementptr inbounds %"class.Json::Reader", %"class.Json::Reader"* %this1, i32 0, i32 5, !dbg !5133
  %8 = load i8*, i8** %current_9, align 8, !dbg !5134
  %incdec.ptr = getelementptr inbounds i8, i8* %8, i32 1, !dbg !5134
  store i8* %incdec.ptr, i8** %current_9, align 8, !dbg !5134
  br label %while.cond, !dbg !5135

while.end:                                        ; preds = %if.then, %while.cond
  ret void, !dbg !5137
}

; Function Attrs: nounwind uwtable
define zeroext i1 @_ZN4Json6Reader5matchEPKci(%"class.Json::Reader"* %this, i8* %pattern, i32 %patternLength) #0 align 2 !dbg !2855 {
entry:
  %retval = alloca i1, align 1
  %this.addr = alloca %"class.Json::Reader"*, align 8
  %pattern.addr = alloca i8*, align 8
  %patternLength.addr = alloca i32, align 4
  %index = alloca i32, align 4
  store %"class.Json::Reader"* %this, %"class.Json::Reader"** %this.addr, align 8
  call void @llvm.dbg.declare(metadata %"class.Json::Reader"** %this.addr, metadata !5138, metadata !3818), !dbg !5139
  store i8* %pattern, i8** %pattern.addr, align 8
  call void @llvm.dbg.declare(metadata i8** %pattern.addr, metadata !5140, metadata !3818), !dbg !5141
  store i32 %patternLength, i32* %patternLength.addr, align 4
  call void @llvm.dbg.declare(metadata i32* %patternLength.addr, metadata !5142, metadata !3818), !dbg !5143
  %this1 = load %"class.Json::Reader"*, %"class.Json::Reader"** %this.addr, align 8
  %end_ = getelementptr inbounds %"class.Json::Reader", %"class.Json::Reader"* %this1, i32 0, i32 4, !dbg !5144
  %0 = load i8*, i8** %end_, align 8, !dbg !5144
  %current_ = getelementptr inbounds %"class.Json::Reader", %"class.Json::Reader"* %this1, i32 0, i32 5, !dbg !5146
  %1 = load i8*, i8** %current_, align 8, !dbg !5146
  %sub.ptr.lhs.cast = ptrtoint i8* %0 to i64, !dbg !5147
  %sub.ptr.rhs.cast = ptrtoint i8* %1 to i64, !dbg !5147
  %sub.ptr.sub = sub i64 %sub.ptr.lhs.cast, %sub.ptr.rhs.cast, !dbg !5147
  %2 = load i32, i32* %patternLength.addr, align 4, !dbg !5148
  %conv = sext i32 %2 to i64, !dbg !5148
  %cmp = icmp slt i64 %sub.ptr.sub, %conv, !dbg !5149
  br i1 %cmp, label %if.then, label %if.end, !dbg !5150

if.then:                                          ; preds = %entry
  store i1 false, i1* %retval, align 1, !dbg !5151
  br label %return, !dbg !5151

if.end:                                           ; preds = %entry
  call void @llvm.dbg.declare(metadata i32* %index, metadata !5152, metadata !3818), !dbg !5153
  %3 = load i32, i32* %patternLength.addr, align 4, !dbg !5154
  store i32 %3, i32* %index, align 4, !dbg !5153
  br label %while.cond, !dbg !5155

while.cond:                                       ; preds = %if.end9, %if.end
  %4 = load i32, i32* %index, align 4, !dbg !5156
  %dec = add nsw i32 %4, -1, !dbg !5156
  store i32 %dec, i32* %index, align 4, !dbg !5156
  %tobool = icmp ne i32 %4, 0, !dbg !5158
  br i1 %tobool, label %while.body, label %while.end, !dbg !5159

while.body:                                       ; preds = %while.cond
  %5 = load i32, i32* %index, align 4, !dbg !5160
  %idxprom = sext i32 %5 to i64, !dbg !5162
  %current_2 = getelementptr inbounds %"class.Json::Reader", %"class.Json::Reader"* %this1, i32 0, i32 5, !dbg !5162
  %6 = load i8*, i8** %current_2, align 8, !dbg !5162
  %arrayidx = getelementptr inbounds i8, i8* %6, i64 %idxprom, !dbg !5162
  %7 = load i8, i8* %arrayidx, align 1, !dbg !5162
  %conv3 = sext i8 %7 to i32, !dbg !5162
  %8 = load i32, i32* %index, align 4, !dbg !5163
  %idxprom4 = sext i32 %8 to i64, !dbg !5164
  %9 = load i8*, i8** %pattern.addr, align 8, !dbg !5164
  %arrayidx5 = getelementptr inbounds i8, i8* %9, i64 %idxprom4, !dbg !5164
  %10 = load i8, i8* %arrayidx5, align 1, !dbg !5164
  %conv6 = sext i8 %10 to i32, !dbg !5164
  %cmp7 = icmp ne i32 %conv3, %conv6, !dbg !5165
  br i1 %cmp7, label %if.then8, label %if.end9, !dbg !5166

if.then8:                                         ; preds = %while.body
  store i1 false, i1* %retval, align 1, !dbg !5167
  br label %return, !dbg !5167

if.end9:                                          ; preds = %while.body
  br label %while.cond, !dbg !5168

while.end:                                        ; preds = %while.cond
  %11 = load i32, i32* %patternLength.addr, align 4, !dbg !5170
  %current_10 = getelementptr inbounds %"class.Json::Reader", %"class.Json::Reader"* %this1, i32 0, i32 5, !dbg !5171
  %12 = load i8*, i8** %current_10, align 8, !dbg !5172
  %idx.ext = sext i32 %11 to i64, !dbg !5172
  %add.ptr = getelementptr inbounds i8, i8* %12, i64 %idx.ext, !dbg !5172
  store i8* %add.ptr, i8** %current_10, align 8, !dbg !5172
  store i1 true, i1* %retval, align 1, !dbg !5173
  br label %return, !dbg !5173

return:                                           ; preds = %while.end, %if.then8, %if.then
  %13 = load i1, i1* %retval, align 1, !dbg !5174
  ret i1 %13, !dbg !5174
}

; Function Attrs: uwtable
define zeroext i1 @_ZN4Json6Reader17readCStyleCommentEv(%"class.Json::Reader"* %this) #2 align 2 !dbg !2858 {
entry:
  %this.addr = alloca %"class.Json::Reader"*, align 8
  %c = alloca i8, align 1
  store %"class.Json::Reader"* %this, %"class.Json::Reader"** %this.addr, align 8
  call void @llvm.dbg.declare(metadata %"class.Json::Reader"** %this.addr, metadata !5175, metadata !3818), !dbg !5176
  %this1 = load %"class.Json::Reader"*, %"class.Json::Reader"** %this.addr, align 8
  br label %while.cond, !dbg !5177

while.cond:                                       ; preds = %if.end, %entry
  %current_ = getelementptr inbounds %"class.Json::Reader", %"class.Json::Reader"* %this1, i32 0, i32 5, !dbg !5178
  %0 = load i8*, i8** %current_, align 8, !dbg !5178
  %end_ = getelementptr inbounds %"class.Json::Reader", %"class.Json::Reader"* %this1, i32 0, i32 4, !dbg !5180
  %1 = load i8*, i8** %end_, align 8, !dbg !5180
  %cmp = icmp ne i8* %0, %1, !dbg !5181
  br i1 %cmp, label %while.body, label %while.end, !dbg !5182

while.body:                                       ; preds = %while.cond
  call void @llvm.dbg.declare(metadata i8* %c, metadata !5183, metadata !3818), !dbg !5185
  %call = call signext i8 @_ZN4Json6Reader11getNextCharEv(%"class.Json::Reader"* %this1), !dbg !5186
  store i8 %call, i8* %c, align 1, !dbg !5185
  %2 = load i8, i8* %c, align 1, !dbg !5187
  %conv = sext i8 %2 to i32, !dbg !5187
  %cmp2 = icmp eq i32 %conv, 42, !dbg !5189
  br i1 %cmp2, label %land.lhs.true, label %if.end, !dbg !5190

land.lhs.true:                                    ; preds = %while.body
  %current_3 = getelementptr inbounds %"class.Json::Reader", %"class.Json::Reader"* %this1, i32 0, i32 5, !dbg !5191
  %3 = load i8*, i8** %current_3, align 8, !dbg !5191
  %4 = load i8, i8* %3, align 1, !dbg !5193
  %conv4 = sext i8 %4 to i32, !dbg !5193
  %cmp5 = icmp eq i32 %conv4, 47, !dbg !5194
  br i1 %cmp5, label %if.then, label %if.end, !dbg !5195

if.then:                                          ; preds = %land.lhs.true
  br label %while.end, !dbg !5196

if.end:                                           ; preds = %land.lhs.true, %while.body
  br label %while.cond, !dbg !5197

while.end:                                        ; preds = %if.then, %while.cond
  %call6 = call signext i8 @_ZN4Json6Reader11getNextCharEv(%"class.Json::Reader"* %this1), !dbg !5199
  %conv7 = sext i8 %call6 to i32, !dbg !5199
  %cmp8 = icmp eq i32 %conv7, 47, !dbg !5200
  ret i1 %cmp8, !dbg !5201
}

; Function Attrs: uwtable
define zeroext i1 @_ZN4Json6Reader19readCppStyleCommentEv(%"class.Json::Reader"* %this) #2 align 2 !dbg !2859 {
entry:
  %this.addr = alloca %"class.Json::Reader"*, align 8
  %c = alloca i8, align 1
  store %"class.Json::Reader"* %this, %"class.Json::Reader"** %this.addr, align 8
  call void @llvm.dbg.declare(metadata %"class.Json::Reader"** %this.addr, metadata !5202, metadata !3818), !dbg !5203
  %this1 = load %"class.Json::Reader"*, %"class.Json::Reader"** %this.addr, align 8
  br label %while.cond, !dbg !5204

while.cond:                                       ; preds = %if.end, %entry
  %current_ = getelementptr inbounds %"class.Json::Reader", %"class.Json::Reader"* %this1, i32 0, i32 5, !dbg !5205
  %0 = load i8*, i8** %current_, align 8, !dbg !5205
  %end_ = getelementptr inbounds %"class.Json::Reader", %"class.Json::Reader"* %this1, i32 0, i32 4, !dbg !5207
  %1 = load i8*, i8** %end_, align 8, !dbg !5207
  %cmp = icmp ne i8* %0, %1, !dbg !5208
  br i1 %cmp, label %while.body, label %while.end, !dbg !5209

while.body:                                       ; preds = %while.cond
  call void @llvm.dbg.declare(metadata i8* %c, metadata !5210, metadata !3818), !dbg !5212
  %call = call signext i8 @_ZN4Json6Reader11getNextCharEv(%"class.Json::Reader"* %this1), !dbg !5213
  store i8 %call, i8* %c, align 1, !dbg !5212
  %2 = load i8, i8* %c, align 1, !dbg !5214
  %conv = sext i8 %2 to i32, !dbg !5214
  %cmp2 = icmp eq i32 %conv, 13, !dbg !5216
  br i1 %cmp2, label %if.then, label %lor.lhs.false, !dbg !5217

lor.lhs.false:                                    ; preds = %while.body
  %3 = load i8, i8* %c, align 1, !dbg !5218
  %conv3 = sext i8 %3 to i32, !dbg !5218
  %cmp4 = icmp eq i32 %conv3, 10, !dbg !5220
  br i1 %cmp4, label %if.then, label %if.end, !dbg !5221

if.then:                                          ; preds = %lor.lhs.false, %while.body
  br label %while.end, !dbg !5222

if.end:                                           ; preds = %lor.lhs.false
  br label %while.cond, !dbg !5223

while.end:                                        ; preds = %if.then, %while.cond
  ret i1 true, !dbg !5225
}

; Function Attrs: nounwind uwtable
define internal zeroext i1 @_ZN4JsonL15containsNewLineEPKcS1_(i8* %begin, i8* %end) #0 !dbg !2890 {
entry:
  %retval = alloca i1, align 1
  %begin.addr = alloca i8*, align 8
  %end.addr = alloca i8*, align 8
  store i8* %begin, i8** %begin.addr, align 8
  call void @llvm.dbg.declare(metadata i8** %begin.addr, metadata !5226, metadata !3818), !dbg !5227
  store i8* %end, i8** %end.addr, align 8
  call void @llvm.dbg.declare(metadata i8** %end.addr, metadata !5228, metadata !3818), !dbg !5229
  br label %for.cond, !dbg !5230

for.cond:                                         ; preds = %for.inc, %entry
  %0 = load i8*, i8** %begin.addr, align 8, !dbg !5231
  %1 = load i8*, i8** %end.addr, align 8, !dbg !5235
  %cmp = icmp ult i8* %0, %1, !dbg !5236
  br i1 %cmp, label %for.body, label %for.end, !dbg !5237

for.body:                                         ; preds = %for.cond
  %2 = load i8*, i8** %begin.addr, align 8, !dbg !5238
  %3 = load i8, i8* %2, align 1, !dbg !5240
  %conv = sext i8 %3 to i32, !dbg !5240
  %cmp1 = icmp eq i32 %conv, 10, !dbg !5241
  br i1 %cmp1, label %if.then, label %lor.lhs.false, !dbg !5242

lor.lhs.false:                                    ; preds = %for.body
  %4 = load i8*, i8** %begin.addr, align 8, !dbg !5243
  %5 = load i8, i8* %4, align 1, !dbg !5245
  %conv2 = sext i8 %5 to i32, !dbg !5245
  %cmp3 = icmp eq i32 %conv2, 13, !dbg !5246
  br i1 %cmp3, label %if.then, label %if.end, !dbg !5247

if.then:                                          ; preds = %lor.lhs.false, %for.body
  store i1 true, i1* %retval, align 1, !dbg !5248
  br label %return, !dbg !5248

if.end:                                           ; preds = %lor.lhs.false
  br label %for.inc, !dbg !5249

for.inc:                                          ; preds = %if.end
  %6 = load i8*, i8** %begin.addr, align 8, !dbg !5251
  %incdec.ptr = getelementptr inbounds i8, i8* %6, i32 1, !dbg !5251
  store i8* %incdec.ptr, i8** %begin.addr, align 8, !dbg !5251
  br label %for.cond, !dbg !5253

for.end:                                          ; preds = %for.cond
  store i1 false, i1* %retval, align 1, !dbg !5254
  br label %return, !dbg !5254

return:                                           ; preds = %for.end, %if.then
  %7 = load i1, i1* %retval, align 1, !dbg !5255
  ret i1 %7, !dbg !5255
}

; Function Attrs: uwtable
define void @_ZN4Json6Reader10addCommentEPKcS2_NS_16CommentPlacementE(%"class.Json::Reader"* %this, i8* %begin, i8* %end, i32 %placement) #2 align 2 personality i8* bitcast (i32 (...)* @__gxx_personality_v0 to i8*) !dbg !2857 {
entry:
  %this.addr = alloca %"class.Json::Reader"*, align 8
  %begin.addr = alloca i8*, align 8
  %end.addr = alloca i8*, align 8
  %placement.addr = alloca i32, align 4
  %ref.tmp = alloca %"class.std::basic_string", align 8
  %ref.tmp7 = alloca %"class.std::allocator.8", align 1
  %exn.slot = alloca i8*
  %ehselector.slot = alloca i32
  %ref.tmp12 = alloca %"class.std::basic_string", align 8
  %ref.tmp13 = alloca %"class.std::allocator.8", align 1
  store %"class.Json::Reader"* %this, %"class.Json::Reader"** %this.addr, align 8
  call void @llvm.dbg.declare(metadata %"class.Json::Reader"** %this.addr, metadata !5256, metadata !3818), !dbg !5257
  store i8* %begin, i8** %begin.addr, align 8
  call void @llvm.dbg.declare(metadata i8** %begin.addr, metadata !5258, metadata !3818), !dbg !5259
  store i8* %end, i8** %end.addr, align 8
  call void @llvm.dbg.declare(metadata i8** %end.addr, metadata !5260, metadata !3818), !dbg !5261
  store i32 %placement, i32* %placement.addr, align 4
  call void @llvm.dbg.declare(metadata i32* %placement.addr, metadata !5262, metadata !3818), !dbg !5263
  %this1 = load %"class.Json::Reader"*, %"class.Json::Reader"** %this.addr, align 8
  %collectComments_ = getelementptr inbounds %"class.Json::Reader", %"class.Json::Reader"* %this1, i32 0, i32 10, !dbg !5264
  %0 = load i8, i8* %collectComments_, align 4, !dbg !5264
  %tobool = trunc i8 %0 to i1, !dbg !5264
  br i1 %tobool, label %cond.true, label %cond.false, !dbg !5264

cond.true:                                        ; preds = %entry
  br label %cond.end, !dbg !5265

cond.false:                                       ; preds = %entry
  call void @__assert_fail(i8* getelementptr inbounds ([17 x i8], [17 x i8]* @.str.7, i32 0, i32 0), i8* getelementptr inbounds ([83 x i8], [83 x i8]* @.str.8, i32 0, i32 0), i32 356, i8* getelementptr inbounds ([74 x i8], [74 x i8]* @__PRETTY_FUNCTION__._ZN4Json6Reader10addCommentEPKcS2_NS_16CommentPlacementE, i32 0, i32 0)) #13, !dbg !5267
  unreachable, !dbg !5267
                                                  ; No predecessors!
  br label %cond.end, !dbg !5269

cond.end:                                         ; preds = %1, %cond.true
  %2 = load i32, i32* %placement.addr, align 4, !dbg !5271
  %cmp = icmp eq i32 %2, 1, !dbg !5273
  br i1 %cmp, label %if.then, label %if.else, !dbg !5274

if.then:                                          ; preds = %cond.end
  %lastValue_ = getelementptr inbounds %"class.Json::Reader", %"class.Json::Reader"* %this1, i32 0, i32 7, !dbg !5275
  %3 = load %"class.Json::Value"*, %"class.Json::Value"** %lastValue_, align 8, !dbg !5275
  %cmp2 = icmp ne %"class.Json::Value"* %3, null, !dbg !5275
  br i1 %cmp2, label %cond.true3, label %cond.false4, !dbg !5275

cond.true3:                                       ; preds = %if.then
  br label %cond.end5, !dbg !5277

cond.false4:                                      ; preds = %if.then
  call void @__assert_fail(i8* getelementptr inbounds ([16 x i8], [16 x i8]* @.str.9, i32 0, i32 0), i8* getelementptr inbounds ([83 x i8], [83 x i8]* @.str.8, i32 0, i32 0), i32 358, i8* getelementptr inbounds ([74 x i8], [74 x i8]* @__PRETTY_FUNCTION__._ZN4Json6Reader10addCommentEPKcS2_NS_16CommentPlacementE, i32 0, i32 0)) #13, !dbg !5279
  unreachable, !dbg !5279
                                                  ; No predecessors!
  br label %cond.end5, !dbg !5281

cond.end5:                                        ; preds = %4, %cond.true3
  %lastValue_6 = getelementptr inbounds %"class.Json::Reader", %"class.Json::Reader"* %this1, i32 0, i32 7, !dbg !5283
  %5 = load %"class.Json::Value"*, %"class.Json::Value"** %lastValue_6, align 8, !dbg !5283
  %6 = load i8*, i8** %begin.addr, align 8, !dbg !5284
  %7 = load i8*, i8** %end.addr, align 8, !dbg !5285
  call void @_ZNSaIcEC1Ev(%"class.std::allocator.8"* %ref.tmp7) #14, !dbg !5286
  invoke void @_ZNSsC2IPKcEET_S2_RKSaIcE(%"class.std::basic_string"* %ref.tmp, i8* %6, i8* %7, %"class.std::allocator.8"* dereferenceable(1) %ref.tmp7)
          to label %invoke.cont unwind label %lpad, !dbg !5286

invoke.cont:                                      ; preds = %cond.end5
  %8 = load i32, i32* %placement.addr, align 4, !dbg !5287
  invoke void @_ZN4Json5Value10setCommentERKSsNS_16CommentPlacementE(%"class.Json::Value"* %5, %"class.std::basic_string"* dereferenceable(8) %ref.tmp, i32 %8)
          to label %invoke.cont9 unwind label %lpad8, !dbg !5288

invoke.cont9:                                     ; preds = %invoke.cont
  invoke void @_ZNSsD1Ev(%"class.std::basic_string"* %ref.tmp)
          to label %invoke.cont10 unwind label %lpad, !dbg !5289

invoke.cont10:                                    ; preds = %invoke.cont9
  call void @_ZNSaIcED1Ev(%"class.std::allocator.8"* %ref.tmp7) #14, !dbg !5290
  br label %if.end, !dbg !5291

lpad:                                             ; preds = %invoke.cont9, %cond.end5
  %9 = landingpad { i8*, i32 }
          cleanup, !dbg !5292
  %10 = extractvalue { i8*, i32 } %9, 0, !dbg !5292
  store i8* %10, i8** %exn.slot, align 8, !dbg !5292
  %11 = extractvalue { i8*, i32 } %9, 1, !dbg !5292
  store i32 %11, i32* %ehselector.slot, align 4, !dbg !5292
  br label %ehcleanup, !dbg !5292

lpad8:                                            ; preds = %invoke.cont
  %12 = landingpad { i8*, i32 }
          cleanup, !dbg !5293
  %13 = extractvalue { i8*, i32 } %12, 0, !dbg !5293
  store i8* %13, i8** %exn.slot, align 8, !dbg !5293
  %14 = extractvalue { i8*, i32 } %12, 1, !dbg !5293
  store i32 %14, i32* %ehselector.slot, align 4, !dbg !5293
  invoke void @_ZNSsD1Ev(%"class.std::basic_string"* %ref.tmp)
          to label %invoke.cont11 unwind label %terminate.lpad, !dbg !5294

invoke.cont11:                                    ; preds = %lpad8
  br label %ehcleanup, !dbg !5296

ehcleanup:                                        ; preds = %invoke.cont11, %lpad
  call void @_ZNSaIcED1Ev(%"class.std::allocator.8"* %ref.tmp7) #14, !dbg !5298
  br label %eh.resume, !dbg !5298

if.else:                                          ; preds = %cond.end
  %commentsBefore_ = getelementptr inbounds %"class.Json::Reader", %"class.Json::Reader"* %this1, i32 0, i32 8, !dbg !5300
  %15 = load i8*, i8** %begin.addr, align 8, !dbg !5302
  %16 = load i8*, i8** %end.addr, align 8, !dbg !5303
  call void @_ZNSaIcEC1Ev(%"class.std::allocator.8"* %ref.tmp13) #14, !dbg !5304
  invoke void @_ZNSsC2IPKcEET_S2_RKSaIcE(%"class.std::basic_string"* %ref.tmp12, i8* %15, i8* %16, %"class.std::allocator.8"* dereferenceable(1) %ref.tmp13)
          to label %invoke.cont15 unwind label %lpad14, !dbg !5304

invoke.cont15:                                    ; preds = %if.else
  %call = invoke dereferenceable(8) %"class.std::basic_string"* @_ZNSspLERKSs(%"class.std::basic_string"* %commentsBefore_, %"class.std::basic_string"* dereferenceable(8) %ref.tmp12)
          to label %invoke.cont17 unwind label %lpad16, !dbg !5305

invoke.cont17:                                    ; preds = %invoke.cont15
  invoke void @_ZNSsD1Ev(%"class.std::basic_string"* %ref.tmp12)
          to label %invoke.cont18 unwind label %lpad14, !dbg !5307

invoke.cont18:                                    ; preds = %invoke.cont17
  call void @_ZNSaIcED1Ev(%"class.std::allocator.8"* %ref.tmp13) #14, !dbg !5309
  br label %if.end

lpad14:                                           ; preds = %invoke.cont17, %if.else
  %17 = landingpad { i8*, i32 }
          cleanup, !dbg !5311
  %18 = extractvalue { i8*, i32 } %17, 0, !dbg !5311
  store i8* %18, i8** %exn.slot, align 8, !dbg !5311
  %19 = extractvalue { i8*, i32 } %17, 1, !dbg !5311
  store i32 %19, i32* %ehselector.slot, align 4, !dbg !5311
  br label %ehcleanup21, !dbg !5311

lpad16:                                           ; preds = %invoke.cont15
  %20 = landingpad { i8*, i32 }
          cleanup, !dbg !5312
  %21 = extractvalue { i8*, i32 } %20, 0, !dbg !5312
  store i8* %21, i8** %exn.slot, align 8, !dbg !5312
  %22 = extractvalue { i8*, i32 } %20, 1, !dbg !5312
  store i32 %22, i32* %ehselector.slot, align 4, !dbg !5312
  invoke void @_ZNSsD1Ev(%"class.std::basic_string"* %ref.tmp12)
          to label %invoke.cont20 unwind label %terminate.lpad, !dbg !5313

invoke.cont20:                                    ; preds = %lpad16
  br label %ehcleanup21, !dbg !5315

ehcleanup21:                                      ; preds = %invoke.cont20, %lpad14
  call void @_ZNSaIcED1Ev(%"class.std::allocator.8"* %ref.tmp13) #14, !dbg !5317
  br label %eh.resume, !dbg !5317

if.end:                                           ; preds = %invoke.cont18, %invoke.cont10
  ret void, !dbg !5319

eh.resume:                                        ; preds = %ehcleanup21, %ehcleanup
  %exn = load i8*, i8** %exn.slot, align 8, !dbg !5321
  %sel = load i32, i32* %ehselector.slot, align 4, !dbg !5321
  %lpad.val = insertvalue { i8*, i32 } undef, i8* %exn, 0, !dbg !5321
  %lpad.val22 = insertvalue { i8*, i32 } %lpad.val, i32 %sel, 1, !dbg !5321
  resume { i8*, i32 } %lpad.val22, !dbg !5321

terminate.lpad:                                   ; preds = %lpad16, %lpad8
  %23 = landingpad { i8*, i32 }
          catch i8* null, !dbg !5323
  %24 = extractvalue { i8*, i32 } %23, 0, !dbg !5323
  call void @__clang_call_terminate(i8* %24) #13, !dbg !5323
  unreachable, !dbg !5323
}

; Function Attrs: noreturn nounwind
declare void @__assert_fail(i8*, i8*, i32, i8*) #8

; Function Attrs: uwtable
define linkonce_odr void @_ZNSsC2IPKcEET_S2_RKSaIcE(%"class.std::basic_string"* %this, i8* %__beg, i8* %__end, %"class.std::allocator.8"* dereferenceable(1) %__a) unnamed_addr #2 comdat align 2 !dbg !3129 {
entry:
  %this.addr = alloca %"class.std::basic_string"*, align 8
  %__beg.addr = alloca i8*, align 8
  %__end.addr = alloca i8*, align 8
  %__a.addr = alloca %"class.std::allocator.8"*, align 8
  store %"class.std::basic_string"* %this, %"class.std::basic_string"** %this.addr, align 8
  call void @llvm.dbg.declare(metadata %"class.std::basic_string"** %this.addr, metadata !5325, metadata !3818), !dbg !5327
  store i8* %__beg, i8** %__beg.addr, align 8
  call void @llvm.dbg.declare(metadata i8** %__beg.addr, metadata !5328, metadata !3818), !dbg !5329
  store i8* %__end, i8** %__end.addr, align 8
  call void @llvm.dbg.declare(metadata i8** %__end.addr, metadata !5330, metadata !3818), !dbg !5331
  store %"class.std::allocator.8"* %__a, %"class.std::allocator.8"** %__a.addr, align 8
  call void @llvm.dbg.declare(metadata %"class.std::allocator.8"** %__a.addr, metadata !5332, metadata !3818), !dbg !5333
  %this1 = load %"class.std::basic_string"*, %"class.std::basic_string"** %this.addr, align 8
  %_M_dataplus = getelementptr inbounds %"class.std::basic_string", %"class.std::basic_string"* %this1, i32 0, i32 0, !dbg !5334
  %0 = load i8*, i8** %__beg.addr, align 8, !dbg !5335
  %1 = load i8*, i8** %__end.addr, align 8, !dbg !5336
  %2 = load %"class.std::allocator.8"*, %"class.std::allocator.8"** %__a.addr, align 8, !dbg !5337
  %call = call i8* @_ZNSs12_S_constructIPKcEEPcT_S3_RKSaIcE(i8* %0, i8* %1, %"class.std::allocator.8"* dereferenceable(1) %2), !dbg !5338
  %3 = load %"class.std::allocator.8"*, %"class.std::allocator.8"** %__a.addr, align 8, !dbg !5339
  call void @_ZNSs12_Alloc_hiderC1EPcRKSaIcE(%"struct.std::basic_string<char, std::char_traits<char>, std::allocator<char> >::_Alloc_hider"* %_M_dataplus, i8* %call, %"class.std::allocator.8"* dereferenceable(1) %3), !dbg !5340
  ret void, !dbg !5342
}

declare dereferenceable(8) %"class.std::basic_string"* @_ZNSspLERKSs(%"class.std::basic_string"*, %"class.std::basic_string"* dereferenceable(8)) #4

; Function Attrs: inlinehint nounwind uwtable
define internal zeroext i1 @_ZN4JsonL2inEcccccc(i8 signext %c, i8 signext %c1, i8 signext %c2, i8 signext %c3, i8 signext %c4, i8 signext %c5) #9 !dbg !2893 {
entry:
  %c.addr = alloca i8, align 1
  %c1.addr = alloca i8, align 1
  %c2.addr = alloca i8, align 1
  %c3.addr = alloca i8, align 1
  %c4.addr = alloca i8, align 1
  %c5.addr = alloca i8, align 1
  store i8 %c, i8* %c.addr, align 1
  call void @llvm.dbg.declare(metadata i8* %c.addr, metadata !5343, metadata !3818), !dbg !5344
  store i8 %c1, i8* %c1.addr, align 1
  call void @llvm.dbg.declare(metadata i8* %c1.addr, metadata !5345, metadata !3818), !dbg !5346
  store i8 %c2, i8* %c2.addr, align 1
  call void @llvm.dbg.declare(metadata i8* %c2.addr, metadata !5347, metadata !3818), !dbg !5348
  store i8 %c3, i8* %c3.addr, align 1
  call void @llvm.dbg.declare(metadata i8* %c3.addr, metadata !5349, metadata !3818), !dbg !5350
  store i8 %c4, i8* %c4.addr, align 1
  call void @llvm.dbg.declare(metadata i8* %c4.addr, metadata !5351, metadata !3818), !dbg !5352
  store i8 %c5, i8* %c5.addr, align 1
  call void @llvm.dbg.declare(metadata i8* %c5.addr, metadata !5353, metadata !3818), !dbg !5354
  %0 = load i8, i8* %c.addr, align 1, !dbg !5355
  %conv = sext i8 %0 to i32, !dbg !5355
  %1 = load i8, i8* %c1.addr, align 1, !dbg !5356
  %conv1 = sext i8 %1 to i32, !dbg !5356
  %cmp = icmp eq i32 %conv, %conv1, !dbg !5357
  br i1 %cmp, label %lor.end, label %lor.lhs.false, !dbg !5358

lor.lhs.false:                                    ; preds = %entry
  %2 = load i8, i8* %c.addr, align 1, !dbg !5359
  %conv2 = sext i8 %2 to i32, !dbg !5359
  %3 = load i8, i8* %c2.addr, align 1, !dbg !5361
  %conv3 = sext i8 %3 to i32, !dbg !5361
  %cmp4 = icmp eq i32 %conv2, %conv3, !dbg !5362
  br i1 %cmp4, label %lor.end, label %lor.lhs.false5, !dbg !5363

lor.lhs.false5:                                   ; preds = %lor.lhs.false
  %4 = load i8, i8* %c.addr, align 1, !dbg !5364
  %conv6 = sext i8 %4 to i32, !dbg !5364
  %5 = load i8, i8* %c3.addr, align 1, !dbg !5366
  %conv7 = sext i8 %5 to i32, !dbg !5366
  %cmp8 = icmp eq i32 %conv6, %conv7, !dbg !5367
  br i1 %cmp8, label %lor.end, label %lor.lhs.false9, !dbg !5368

lor.lhs.false9:                                   ; preds = %lor.lhs.false5
  %6 = load i8, i8* %c.addr, align 1, !dbg !5369
  %conv10 = sext i8 %6 to i32, !dbg !5369
  %7 = load i8, i8* %c4.addr, align 1, !dbg !5371
  %conv11 = sext i8 %7 to i32, !dbg !5371
  %cmp12 = icmp eq i32 %conv10, %conv11, !dbg !5372
  br i1 %cmp12, label %lor.end, label %lor.rhs, !dbg !5373

lor.rhs:                                          ; preds = %lor.lhs.false9
  %8 = load i8, i8* %c.addr, align 1, !dbg !5374
  %conv13 = sext i8 %8 to i32, !dbg !5374
  %9 = load i8, i8* %c5.addr, align 1, !dbg !5376
  %conv14 = sext i8 %9 to i32, !dbg !5376
  %cmp15 = icmp eq i32 %conv13, %conv14, !dbg !5377
  br label %lor.end, !dbg !5378

lor.end:                                          ; preds = %lor.rhs, %lor.lhs.false9, %lor.lhs.false5, %lor.lhs.false, %entry
  %10 = phi i1 [ true, %lor.lhs.false9 ], [ true, %lor.lhs.false5 ], [ true, %lor.lhs.false ], [ true, %entry ], [ %cmp15, %lor.rhs ]
  ret i1 %10, !dbg !5379
}

; Function Attrs: uwtable
define zeroext i1 @_ZN4Json6Reader12decodeStringERNS0_5TokenERSs(%"class.Json::Reader"* %this, %"class.Json::Reader::Token"* dereferenceable(24) %token, %"class.std::basic_string"* dereferenceable(8) %decoded) #2 align 2 personality i8* bitcast (i32 (...)* @__gxx_personality_v0 to i8*) !dbg !2869 {
entry:
  %retval = alloca i1, align 1
  %this.addr = alloca %"class.Json::Reader"*, align 8
  %token.addr = alloca %"class.Json::Reader::Token"*, align 8
  %decoded.addr = alloca %"class.std::basic_string"*, align 8
  %current = alloca i8*, align 8
  %end = alloca i8*, align 8
  %c = alloca i8, align 1
  %ref.tmp = alloca %"class.std::basic_string", align 8
  %ref.tmp11 = alloca %"class.std::allocator.8", align 1
  %exn.slot = alloca i8*
  %ehselector.slot = alloca i32
